ARM GAS  C:\Users\thieu\AppData\Local\Temp\ccugcNKl.s 			page 1


   1              		.syntax unified
   2              		.cpu cortex-m3
   3              		.fpu softvfp
   4              		.eabi_attribute 20, 1
   5              		.eabi_attribute 21, 1
   6              		.eabi_attribute 23, 3
   7              		.eabi_attribute 24, 1
   8              		.eabi_attribute 25, 1
   9              		.eabi_attribute 26, 1
  10              		.eabi_attribute 30, 1
  11              		.eabi_attribute 34, 1
  12              		.eabi_attribute 18, 4
  13              		.thumb
  14              		.syntax unified
  15              		.file	"main.c"
  16              		.text
  17              	.Ltext0:
  18              		.cfi_sections	.debug_frame
  19              		.section	.text.MyIsrUartRX,"ax",%progbits
  20              		.align	2
  21              		.global	MyIsrUartRX
  22              		.thumb
  23              		.thumb_func
  24              		.type	MyIsrUartRX, %function
  25              	MyIsrUartRX:
  26              	.LFB64:
  27              		.file 1 "main.c"
   1:main.c        **** /* ========================================
   2:main.c        ****  *
   3:main.c        ****  * Copyright R. Mayer, h_da, FbI, 2020
   4:main.c        ****  * All Rights Reserved
   5:main.c        ****  * UNPUBLISHED, LICENSED SOFTWARE.
   6:main.c        ****  *
   7:main.c        ****  * CONFIDENTIAL AND PROPRIETARY INFORMATION
   8:main.c        ****  * WHICH IS THE PROPERTY OF your company.
   9:main.c        ****  *
  10:main.c        ****  * ========================================
  11:main.c        **** */
  12:main.c        **** #include "project.h"
  13:main.c        **** #include <stdio.h>      // für string-Operationen wie sprintf
  14:main.c        **** 
  15:main.c        **** /*
  16:main.c        ****  * Diese Definitionen ermöglichen es, 
  17:main.c        ****  * einfach Compiler-Informationen und andere auf den Bildschirm zu schreiben
  18:main.c        ****  */
  19:main.c        **** #define _VERSION_NR     "ver. 1.0"      //!< Version number. Please update
  20:main.c        **** #define _PROJECT_NAME   "MPS22_Prakt_5a" //!< Project name
  21:main.c        **** #define _PROCESSOR      "PSoC 5LP"      //!< Processor type
  22:main.c        **** #define _DEVICE_NAME    "FreeSoC2"      //!< Board or device type
  23:main.c        **** #define _AUTHOR_        "Jonas Hess, Lucas Langston"        //!< Ihr(e) Name(n)!
  24:main.c        **** #define _COMPANY        "FbI Template MPS 5" 
  25:main.c        **** 
  26:main.c        **** // String für die Anzeige zusammenbauen
  27:main.c        **** #define _VERSTR_       (_PROJECT_NAME", "_DEVICE_NAME", "_PROCESSOR", "_VERSION_NR"\n\r"\
  28:main.c        **** _AUTHOR_" ("_COMPANY"), "__DATE__" "__TIME__)
  29:main.c        **** 
  30:main.c        **** /* ++++++++++++++++++++++++++++++++++++++++++++++++++++++++++++++++++++++++++
ARM GAS  C:\Users\thieu\AppData\Local\Temp\ccugcNKl.s 			page 2


  31:main.c        ****  * +++ Lösungs Template: An- und Abschalten von Teillösungen und Optionen +++ 
  32:main.c        ****  * ++++++++++++++++++++++++++++++++++++++++++++++++++++++++++++++++++++++++++ */
  33:main.c        **** #define I2C_PROJ_ON         //!< use I2C hardware
  34:main.c        **** //#define I2C_SIMPLE_BLINK    //!< blink LED's  !Kommentar entfernen, wenn  implementiert!
  35:main.c        **** #define READ_ADC            //!< ADC lesen    !Kommentar entfernen, wenn  implementiert!
  36:main.c        **** 
  37:main.c        **** /* +++ settings for PCF8574 Philips/NXP) 7(!)-bit address +++ */
  38:main.c        **** #define I2C_PCF8574_BASE_ADDR (0x20)     //!< TODO!, ÄNDERN, FUNKTIONIERT NICHT! device base addre
  39:main.c        **** #define I2C_PCF8574_DEV_ADDR  (0b001)    //!< TODO!ÄNDERN, FUNKTIONIERT NICHT! individual device a
  40:main.c        **** #define I2C_PCF8574_ADDR      (I2C_PCF8574_BASE_ADDR | (I2C_PCF8574_DEV_ADDR)) //!< full 7-bit addr
  41:main.c        **** 
  42:main.c        **** /* 
  43:main.c        ****  * String Buffer für Anzeige am Bildschirm anlegen.
  44:main.c        ****  * Auf die maximale Größe achten!
  45:main.c        ****  */
  46:main.c        **** #define BUFFER_SIZE 128             //!< string output buffer size for sprintf
  47:main.c        **** static char buffer[BUFFER_SIZE];    //!< buffer (global) for sprintf
  48:main.c        **** 
  49:main.c        **** static char cRx = 0;                //!< character from UART, visible within main.c
  50:main.c        **** /** 
  51:main.c        ****  * UART RX interrupt service routine.
  52:main.c        ****  *
  53:main.c        ****  * Collect a characters from UART into a global input variable.
  54:main.c        ****  * @see cRx
  55:main.c        ****  */
  56:main.c        **** CY_ISR( MyIsrUartRX ) {
  28              		.loc 1 56 0
  29              		.cfi_startproc
  30              		@ args = 0, pretend = 0, frame = 0
  31              		@ frame_needed = 0, uses_anonymous_args = 0
  32 0000 08B5     		push	{r3, lr}
  33              		.cfi_def_cfa_offset 8
  34              		.cfi_offset 3, -8
  35              		.cfi_offset 14, -4
  57:main.c        ****     cRx = UART_GetChar();   // copy char
  36              		.loc 1 57 0
  37 0002 FFF7FEFF 		bl	UART_GetChar
  38              	.LVL0:
  39 0006 014B     		ldr	r3, .L3
  40 0008 1870     		strb	r0, [r3]
  41 000a 08BD     		pop	{r3, pc}
  42              	.L4:
  43              		.align	2
  44              	.L3:
  45 000c 00000000 		.word	.LANCHOR0
  46              		.cfi_endproc
  47              	.LFE64:
  48              		.size	MyIsrUartRX, .-MyIsrUartRX
  49              		.section	.text.main,"ax",%progbits
  50              		.align	2
  51              		.global	main
  52              		.thumb
  53              		.thumb_func
  54              		.type	main, %function
  55              	main:
  56              	.LFB65:
  58:main.c        **** }
ARM GAS  C:\Users\thieu\AppData\Local\Temp\ccugcNKl.s 			page 3


  59:main.c        **** 
  60:main.c        **** /**
  61:main.c        ****  * Projekt-Template mit LED-TIA und SAR-ADC and PCF8574 8-bit I/O-Expander. 
  62:main.c        ****  * 
  63:main.c        ****  * @author Ralf S. Mayer
  64:main.c        ****  * @date 2022-12-29
  65:main.c        ****  * @version 1.0
  66:main.c        ****  */
  67:main.c        **** int main(void)
  68:main.c        **** {
  57              		.loc 1 68 0
  58              		.cfi_startproc
  59              		@ args = 0, pretend = 0, frame = 0
  60              		@ frame_needed = 0, uses_anonymous_args = 0
  61 0000 70B5     		push	{r4, r5, r6, lr}
  62              		.cfi_def_cfa_offset 16
  63              		.cfi_offset 4, -16
  64              		.cfi_offset 5, -12
  65              		.cfi_offset 6, -8
  66              		.cfi_offset 14, -4
  69:main.c        ****     /* +++ Initialisierung +++ */
  70:main.c        ****     UART_Start();                       // start UART
  67              		.loc 1 70 0
  68 0002 FFF7FEFF 		bl	UART_Start
  69              	.LVL1:
  71:main.c        ****     isr_UART_RX_StartEx( MyIsrUartRX ); // register and enable itr uart
  70              		.loc 1 71 0
  71 0006 4B48     		ldr	r0, .L20
  72 0008 FFF7FEFF 		bl	isr_UART_RX_StartEx
  73              	.LVL2:
  72:main.c        **** 
  73:main.c        ****     // Photo Diode ADC Initialization
  74:main.c        ****     TIA_PD_Start();             // Start TIA for photo diode
  74              		.loc 1 74 0
  75 000c FFF7FEFF 		bl	TIA_PD_Start
  76              	.LVL3:
  75:main.c        ****     ADC_SAR_PD_Start();         // Start ADC
  77              		.loc 1 75 0
  78 0010 FFF7FEFF 		bl	ADC_SAR_PD_Start
  79              	.LVL4:
  76:main.c        ****     // +++ TODO +++
  77:main.c        ****     // !!! ADC Konversion starten, Befehl? !!!
  78:main.c        ****     // TODO!  // Start ADC conversion
  79:main.c        ****     ADC_SAR_PD_StartConvert(); // Start Conversion     ?????
  80              		.loc 1 79 0
  81 0014 FFF7FEFF 		bl	ADC_SAR_PD_StartConvert
  82              	.LVL5:
  80:main.c        ****     
  81:main.c        **** #ifdef I2C_PROJ_ON
  82:main.c        ****     // +++ TODO +++
  83:main.c        ****     /* Start I2C UDB Master */
  84:main.c        ****     // !!! I2C starten, Befehl? !!!
  85:main.c        ****     // TODO!                        // start device
  86:main.c        ****     I2C_Start();
  83              		.loc 1 86 0
  84 0018 FFF7FEFF 		bl	I2C_Start
  85              	.LVL6:
ARM GAS  C:\Users\thieu\AppData\Local\Temp\ccugcNKl.s 			page 4


  87:main.c        ****     
  88:main.c        **** #endif // I2C_PROJ_ON
  89:main.c        **** 
  90:main.c        ****     CyGlobalIntEnable; /* Enable global interrupts. */
  86              		.loc 1 90 0
  87              		.syntax unified
  88              	@ 90 "main.c" 1
  89 001c 62B6     		CPSIE   i
  90              	@ 0 "" 2
  91:main.c        **** 
  92:main.c        ****     /* Welcome and info text Ausgabe */
  93:main.c        ****     sprintf( buffer, "\n\rWelcome! %s\n\r", _VERSTR_);  // formatiert in Buffer
  91              		.loc 1 93 0
  92              		.thumb
  93              		.syntax unified
  94 001e 464C     		ldr	r4, .L20+4
  95 0020 464A     		ldr	r2, .L20+8
  96 0022 4749     		ldr	r1, .L20+12
  97 0024 2046     		mov	r0, r4
  98 0026 FFF7FEFF 		bl	sprintf
  99              	.LVL7:
  94:main.c        ****     UART_PutString( buffer );                           // Ausgabe auf UART
 100              		.loc 1 94 0
 101 002a 2046     		mov	r0, r4
 102 002c FFF7FEFF 		bl	UART_PutString
 103              	.LVL8:
  95:main.c        **** 
  96:main.c        ****     int16_t sarResult;                  // signed SAR result
  97:main.c        ****     
  98:main.c        **** #ifdef I2C_PROJ_ON
  99:main.c        ****     uint8_t  sts = I2C_MSTR_NO_ERROR;    // I2C transfer status (no error)
 100:main.c        ****     
 101:main.c        ****     /* +++ test output for adresses +++ */
 102:main.c        ****     sprintf( buffer, "PCF8574 base I2C-address:    0x%02X\n\r", I2C_PCF8574_BASE_ADDR );
 104              		.loc 1 102 0
 105 0030 2022     		movs	r2, #32
 106 0032 4449     		ldr	r1, .L20+16
 107 0034 2046     		mov	r0, r4
 108 0036 FFF7FEFF 		bl	sprintf
 109              	.LVL9:
 103:main.c        ****     UART_PutString( buffer );
 110              		.loc 1 103 0
 111 003a 2046     		mov	r0, r4
 112 003c FFF7FEFF 		bl	UART_PutString
 113              	.LVL10:
 104:main.c        ****     sprintf( buffer, "PCF8574 I2C-dev-address:     0x%02X\n\r", I2C_PCF8574_DEV_ADDR );
 114              		.loc 1 104 0
 115 0040 0122     		movs	r2, #1
 116 0042 4149     		ldr	r1, .L20+20
 117 0044 2046     		mov	r0, r4
 118 0046 FFF7FEFF 		bl	sprintf
 119              	.LVL11:
 105:main.c        ****     UART_PutString( buffer );
 120              		.loc 1 105 0
 121 004a 2046     		mov	r0, r4
 122 004c FFF7FEFF 		bl	UART_PutString
 123              	.LVL12:
ARM GAS  C:\Users\thieu\AppData\Local\Temp\ccugcNKl.s 			page 5


 106:main.c        ****     sprintf( buffer, "PCF8574 I2C-address (7 bit): 0x%02X\n\r", I2C_PCF8574_ADDR );
 124              		.loc 1 106 0
 125 0050 2122     		movs	r2, #33
 126 0052 3E49     		ldr	r1, .L20+24
 127 0054 2046     		mov	r0, r4
 128 0056 FFF7FEFF 		bl	sprintf
 129              	.LVL13:
 107:main.c        ****     UART_PutString( buffer );
 130              		.loc 1 107 0
 131 005a 2046     		mov	r0, r4
 132 005c FFF7FEFF 		bl	UART_PutString
 133              	.LVL14:
 108:main.c        **** #endif // I2C_PROJ_ON
 109:main.c        **** 
 110:main.c        ****     /* +++ Declarationen +++ */
 111:main.c        ****     uint8_t     chr = 0;            // for char von der UART
 134              		.loc 1 111 0
 135 0060 0024     		movs	r4, #0
 136              	.LVL15:
 137              	.L6:
 138              	.LBB2:
 112:main.c        **** 
 113:main.c        ****     /* +++ Applikationsschleife         +++
 114:main.c        ****      * +++ wird ständig durchlaufen     +++ 
 115:main.c        ****      */
 116:main.c        ****     for(;;)
 117:main.c        ****     {
 118:main.c        ****         
 119:main.c        **** #ifdef I2C_PROJ_ON
 120:main.c        ****         /* +++ I2C I/O-Expander +++ */
 121:main.c        ****         static uint8_t i2cByte = 0;         // warum static ?
 122:main.c        ****                                         // ... weil nur einmal initialisiert, dann unten verändert
 123:main.c        ****     #ifdef I2C_SIMPLE_BLINK             // simple blink LED's
 124:main.c        ****         // blinking all LED's
 125:main.c        ****         sts = I2C_MasterClearStatus();  // clear master status
 126:main.c        ****         if ( sts != I2C_MSTR_NO_ERROR ) {
 127:main.c        ****             UART_PutString( "I2C error clear\n\r" );
 128:main.c        ****         }
 129:main.c        ****         sts = I2C_MasterSendStart( I2C_PCF8574_ADDR, 0);  // send address for write
 130:main.c        ****         if ( sts != I2C_MSTR_NO_ERROR ) {
 131:main.c        ****             UART_PutString( "I2C error address\n\r" );
 132:main.c        ****         }//~(2 ^ (sarResult / 256))
 133:main.c        ****         sts = I2C_MasterWriteByte(~(2 ^ (sarResult / 256)));              // write byte
 134:main.c        ****         if ( sts != I2C_MSTR_NO_ERROR ) {
 135:main.c        ****             UART_PutString( "I2C error write\n\r" );
 136:main.c        ****         }
 137:main.c        ****         sts = I2C_MasterSendStop();                      // stop comm
 138:main.c        ****         if ( sts != I2C_MSTR_NO_ERROR ) {
 139:main.c        ****             UART_PutString( "I2C error stop\n\r" );
 140:main.c        ****         }
 141:main.c        ****         CyDelay( 100 );                 // some delay
 142:main.c        ****         i2cByte = ~i2cByte;             // invert all bits for blinking
 143:main.c        ****     #else  // implementieren
 144:main.c        ****         /* +++ TODO +++ */
 145:main.c        ****         /* eigene Werte auf I/O-Expander anzeigen */
 146:main.c        ****         
 147:main.c        ****        sts = I2C_MasterClearStatus();  // clear master status
ARM GAS  C:\Users\thieu\AppData\Local\Temp\ccugcNKl.s 			page 6


 139              		.loc 1 147 0
 140 0062 FFF7FEFF 		bl	I2C_MasterClearStatus
 141              	.LVL16:
 148:main.c        ****         if ( sts != I2C_MSTR_NO_ERROR ) {
 142              		.loc 1 148 0
 143 0066 10B1     		cbz	r0, .L7
 149:main.c        ****             UART_PutString( "I2C error clear\n\r" );
 144              		.loc 1 149 0
 145 0068 3948     		ldr	r0, .L20+28
 146              	.LVL17:
 147 006a FFF7FEFF 		bl	UART_PutString
 148              	.LVL18:
 149              	.L7:
 150:main.c        ****         }
 151:main.c        ****         sts = I2C_MasterSendStart( I2C_PCF8574_ADDR, 0);  // send address for write
 150              		.loc 1 151 0
 151 006e 0021     		movs	r1, #0
 152 0070 2120     		movs	r0, #33
 153 0072 FFF7FEFF 		bl	I2C_MasterSendStart
 154              	.LVL19:
 152:main.c        ****         if ( sts != I2C_MSTR_NO_ERROR ) {
 155              		.loc 1 152 0
 156 0076 10B1     		cbz	r0, .L8
 153:main.c        ****             UART_PutString( "I2C error address\n\r" );
 157              		.loc 1 153 0
 158 0078 3648     		ldr	r0, .L20+32
 159              	.LVL20:
 160 007a FFF7FEFF 		bl	UART_PutString
 161              	.LVL21:
 162              	.L8:
 154:main.c        ****         }
 155:main.c        ****         sts = I2C_MasterWriteByte(~(sarResult / 16));              // write byte
 163              		.loc 1 155 0
 164 007e 2846     		mov	r0, r5
 165 0080 002D     		cmp	r5, #0
 166 0082 01DA     		bge	.L9
 167 0084 05F10F00 		add	r0, r5, #15
 168              	.L9:
 169 0088 6FEA2010 		mvn	r0, r0, asr #4
 170 008c C0B2     		uxtb	r0, r0
 171 008e FFF7FEFF 		bl	I2C_MasterWriteByte
 172              	.LVL22:
 156:main.c        ****         if ( sts != I2C_MSTR_NO_ERROR ) {
 173              		.loc 1 156 0
 174 0092 10B1     		cbz	r0, .L10
 157:main.c        ****             UART_PutString( "I2C error write\n\r" );
 175              		.loc 1 157 0
 176 0094 3048     		ldr	r0, .L20+36
 177              	.LVL23:
 178 0096 FFF7FEFF 		bl	UART_PutString
 179              	.LVL24:
 180              	.L10:
 158:main.c        ****         }
 159:main.c        ****         sts = I2C_MasterSendStop();                      // stop comm
 181              		.loc 1 159 0
 182 009a FFF7FEFF 		bl	I2C_MasterSendStop
 183              	.LVL25:
ARM GAS  C:\Users\thieu\AppData\Local\Temp\ccugcNKl.s 			page 7


 160:main.c        ****         if ( sts != I2C_MSTR_NO_ERROR ) {
 184              		.loc 1 160 0
 185 009e 10B1     		cbz	r0, .L11
 161:main.c        ****             UART_PutString( "I2C error stop\n\r" );
 186              		.loc 1 161 0
 187 00a0 2E48     		ldr	r0, .L20+40
 188              	.LVL26:
 189 00a2 FFF7FEFF 		bl	UART_PutString
 190              	.LVL27:
 191              	.L11:
 162:main.c        ****         }
 163:main.c        ****         CyDelay( 100 );
 192              		.loc 1 163 0
 193 00a6 6420     		movs	r0, #100
 194 00a8 FFF7FEFF 		bl	CyDelay
 195              	.LVL28:
 164:main.c        ****         i2cByte = ~i2cByte; 
 196              		.loc 1 164 0
 197 00ac 2C4A     		ldr	r2, .L20+44
 198 00ae 92F88430 		ldrb	r3, [r2, #132]	@ zero_extendqisi2
 199 00b2 DB43     		mvns	r3, r3
 200 00b4 82F88430 		strb	r3, [r2, #132]
 165:main.c        ****         
 166:main.c        ****         
 167:main.c        ****         
 168:main.c        ****     #endif // I2C_SIMPLE_BLINK   
 169:main.c        **** 
 170:main.c        **** #endif // I2C_PROJ_ON
 171:main.c        **** 
 172:main.c        **** #ifdef READ_ADC
 173:main.c        ****     /* +++ TODO +++ */
 174:main.c        ****     /* ??? wie kann man erreichen, dass hier das Ende der Konversion abgewartet wird ??? */
 175:main.c        ****     //sprintf( buffer, "vor Read: \n\r" );
 176:main.c        ****     //UART_PutString( buffer );
 177:main.c        ****     if (ADC_SAR_PD_IsEndConversion(ADC_SAR_PD_RETURN_STATUS)){
 201              		.loc 1 177 0
 202 00b8 0120     		movs	r0, #1
 203 00ba FFF7FEFF 		bl	ADC_SAR_PD_IsEndConversion
 204              	.LVL29:
 205 00be 58B1     		cbz	r0, .L12
 178:main.c        ****     
 179:main.c        ****     // TODO!   // blocks until end of conversion
 180:main.c        ****     /* !!! ADC-Wert in sarResult auslesen !!! */
 181:main.c        ****      sarResult = ADC_SAR_PD_GetResult16();    //TODO!                            // read SAR
 206              		.loc 1 181 0
 207 00c0 FFF7FEFF 		bl	ADC_SAR_PD_GetResult16
 208              	.LVL30:
 209 00c4 0546     		mov	r5, r0
 210              	.LVL31:
 182:main.c        ****     /* !!! ADC-Wert anzeigen !!! */
 183:main.c        ****     sprintf( buffer, "ADC: %d\n\r", sarResult );
 211              		.loc 1 183 0
 212 00c6 1C4E     		ldr	r6, .L20+4
 213 00c8 0246     		mov	r2, r0
 214 00ca 2649     		ldr	r1, .L20+48
 215 00cc 3046     		mov	r0, r6
 216              	.LVL32:
ARM GAS  C:\Users\thieu\AppData\Local\Temp\ccugcNKl.s 			page 8


 217 00ce FFF7FEFF 		bl	sprintf
 218              	.LVL33:
 184:main.c        ****     UART_PutString( buffer );
 219              		.loc 1 184 0
 220 00d2 3046     		mov	r0, r6
 221 00d4 FFF7FEFF 		bl	UART_PutString
 222              	.LVL34:
 223              	.L12:
 185:main.c        ****     }
 186:main.c        **** #endif // READ_ADC
 187:main.c        **** 
 188:main.c        ****         /* +++ Character aus Uart, ISR abfragen +++ */
 189:main.c        ****         if ( cRx ) {
 224              		.loc 1 189 0
 225 00d8 214B     		ldr	r3, .L20+44
 226 00da 1B78     		ldrb	r3, [r3]	@ zero_extendqisi2
 227 00dc 1BB1     		cbz	r3, .L13
 228              	.LVL35:
 190:main.c        ****             chr = cRx;                  // copy character
 191:main.c        ****             cRx = 0;                    // nicht vergessen!
 229              		.loc 1 191 0
 230 00de 0021     		movs	r1, #0
 231 00e0 1F4A     		ldr	r2, .L20+44
 232 00e2 1170     		strb	r1, [r2]
 190:main.c        ****             chr = cRx;                  // copy character
 233              		.loc 1 190 0
 234 00e4 1C46     		mov	r4, r3
 235              	.LVL36:
 236              	.L13:
 192:main.c        ****         }
 193:main.c        ****         /* +++ Character aus Uart auswerten +++ */
 194:main.c        ****         if ( chr != 0 ) {               // da kam ein Zeichen ...
 237              		.loc 1 194 0
 238 00e6 002C     		cmp	r4, #0
 239 00e8 BBD0     		beq	.L6
 195:main.c        ****             switch (chr) {              // Zeichen auswerten
 240              		.loc 1 195 0
 241 00ea 512C     		cmp	r4, #81
 242 00ec 13D0     		beq	.L16
 243 00ee 02D8     		bhi	.L17
 244 00f0 482C     		cmp	r4, #72
 245 00f2 05D0     		beq	.L18
 246 00f4 13E0     		b	.L15
 247              	.L17:
 248 00f6 682C     		cmp	r4, #104
 249 00f8 02D0     		beq	.L18
 250 00fa 712C     		cmp	r4, #113
 251 00fc 0BD0     		beq	.L16
 252 00fe 0EE0     		b	.L15
 253              	.L18:
 196:main.c        ****                 //  *** nicht verlangt ***
 197:main.c        ****                 case 'h':               // Help
 198:main.c        ****                 case 'H':               // fallthrough
 199:main.c        ****                     UART_PutString( "Help:\n\r" );
 254              		.loc 1 199 0
 255 0100 1948     		ldr	r0, .L20+52
 256 0102 FFF7FEFF 		bl	UART_PutString
ARM GAS  C:\Users\thieu\AppData\Local\Temp\ccugcNKl.s 			page 9


 257              	.LVL37:
 200:main.c        ****                     UART_PutString( "\th,H:\tHelp\n\r" );
 258              		.loc 1 200 0
 259 0106 1948     		ldr	r0, .L20+56
 260 0108 FFF7FEFF 		bl	UART_PutString
 261              	.LVL38:
 201:main.c        ****                     UART_PutString( "\tQ:\tSoftware Reset\n\r" );
 262              		.loc 1 201 0
 263 010c 1848     		ldr	r0, .L20+60
 264 010e FFF7FEFF 		bl	UART_PutString
 265              	.LVL39:
 202:main.c        ****                     break;
 203:main.c        ****                 //  *** nicht verlangt ***
 204:main.c        ****                 case 'q':               // 'q,Q' reset
 205:main.c        ****                 case 'Q':               // fallthrough
 206:main.c        ****                     CySoftwareReset();
 207:main.c        ****                     break;
 208:main.c        ****                 default:
 209:main.c        ****                     UART_PutString( "unbekannte Eingabe <" );
 210:main.c        ****                     UART_PutChar( chr );
 211:main.c        ****                     UART_PutString( "> !!! \n\r" );   // Zeilenabschluss LF CR
 212:main.c        ****                     break;
 213:main.c        ****             } // end switch
 214:main.c        ****             chr = 0;                    // nicht vergessen mit ISR
 266              		.loc 1 214 0
 267 0112 0024     		movs	r4, #0
 268              	.LVL40:
 202:main.c        ****                     break;
 269              		.loc 1 202 0
 270 0114 A5E7     		b	.L6
 271              	.LVL41:
 272              	.L16:
 206:main.c        ****                     break;
 273              		.loc 1 206 0
 274 0116 FFF7FEFF 		bl	CySoftwareReset
 275              	.LVL42:
 276              		.loc 1 214 0
 277 011a 0024     		movs	r4, #0
 278              	.LVL43:
 207:main.c        ****                 default:
 279              		.loc 1 207 0
 280 011c A1E7     		b	.L6
 281              	.LVL44:
 282              	.L15:
 209:main.c        ****                     UART_PutChar( chr );
 283              		.loc 1 209 0
 284 011e 1548     		ldr	r0, .L20+64
 285 0120 FFF7FEFF 		bl	UART_PutString
 286              	.LVL45:
 210:main.c        ****                     UART_PutString( "> !!! \n\r" );   // Zeilenabschluss LF CR
 287              		.loc 1 210 0
 288 0124 2046     		mov	r0, r4
 289 0126 FFF7FEFF 		bl	UART_PutChar
 290              	.LVL46:
 211:main.c        ****                     break;
 291              		.loc 1 211 0
 292 012a 1348     		ldr	r0, .L20+68
ARM GAS  C:\Users\thieu\AppData\Local\Temp\ccugcNKl.s 			page 10


 293 012c FFF7FEFF 		bl	UART_PutString
 294              	.LVL47:
 295              		.loc 1 214 0
 296 0130 0024     		movs	r4, #0
 297              	.LVL48:
 212:main.c        ****             } // end switch
 298              		.loc 1 212 0
 299 0132 96E7     		b	.L6
 300              	.L21:
 301              		.align	2
 302              	.L20:
 303 0134 00000000 		.word	MyIsrUartRX
 304 0138 04000000 		.word	.LANCHOR0+4
 305 013c 00000000 		.word	.LC0
 306 0140 74000000 		.word	.LC1
 307 0144 84000000 		.word	.LC2
 308 0148 AC000000 		.word	.LC3
 309 014c D4000000 		.word	.LC4
 310 0150 FC000000 		.word	.LC5
 311 0154 10010000 		.word	.LC6
 312 0158 24010000 		.word	.LC7
 313 015c 38010000 		.word	.LC8
 314 0160 00000000 		.word	.LANCHOR0
 315 0164 4C010000 		.word	.LC9
 316 0168 58010000 		.word	.LC10
 317 016c 60010000 		.word	.LC11
 318 0170 70010000 		.word	.LC12
 319 0174 88010000 		.word	.LC13
 320 0178 A0010000 		.word	.LC14
 321              	.LBE2:
 322              		.cfi_endproc
 323              	.LFE65:
 324              		.size	main, .-main
 325              		.section	.rodata.str1.4,"aMS",%progbits,1
 326              		.align	2
 327              	.LC0:
 328 0000 4D505332 		.ascii	"MPS22_Prakt_5a, FreeSoC2, PSoC 5LP, ver. 1.0\012\015"
 328      325F5072 
 328      616B745F 
 328      35612C20 
 328      46726565 
 329 002e 4A6F6E61 		.ascii	"Jonas Hess, Lucas Langston (FbI Template MPS 5), Ja"
 329      73204865 
 329      73732C20 
 329      4C756361 
 329      73204C61 
 330 0061 6E203236 		.ascii	"n 26 2023 16:11:32\000"
 330      20323032 
 330      33203136 
 330      3A31313A 
 330      333200
 331              	.LC1:
 332 0074 0A0D5765 		.ascii	"\012\015Welcome! %s\012\015\000"
 332      6C636F6D 
 332      65212025 
 332      730A0D00 
 333              	.LC2:
ARM GAS  C:\Users\thieu\AppData\Local\Temp\ccugcNKl.s 			page 11


 334 0084 50434638 		.ascii	"PCF8574 base I2C-address:    0x%02X\012\015\000"
 334      35373420 
 334      62617365 
 334      20493243 
 334      2D616464 
 335 00aa 0000     		.space	2
 336              	.LC3:
 337 00ac 50434638 		.ascii	"PCF8574 I2C-dev-address:     0x%02X\012\015\000"
 337      35373420 
 337      4932432D 
 337      6465762D 
 337      61646472 
 338 00d2 0000     		.space	2
 339              	.LC4:
 340 00d4 50434638 		.ascii	"PCF8574 I2C-address (7 bit): 0x%02X\012\015\000"
 340      35373420 
 340      4932432D 
 340      61646472 
 340      65737320 
 341 00fa 0000     		.space	2
 342              	.LC5:
 343 00fc 49324320 		.ascii	"I2C error clear\012\015\000"
 343      6572726F 
 343      7220636C 
 343      6561720A 
 343      0D00
 344 010e 0000     		.space	2
 345              	.LC6:
 346 0110 49324320 		.ascii	"I2C error address\012\015\000"
 346      6572726F 
 346      72206164 
 346      64726573 
 346      730A0D00 
 347              	.LC7:
 348 0124 49324320 		.ascii	"I2C error write\012\015\000"
 348      6572726F 
 348      72207772 
 348      6974650A 
 348      0D00
 349 0136 0000     		.space	2
 350              	.LC8:
 351 0138 49324320 		.ascii	"I2C error stop\012\015\000"
 351      6572726F 
 351      72207374 
 351      6F700A0D 
 351      00
 352 0149 000000   		.space	3
 353              	.LC9:
 354 014c 4144433A 		.ascii	"ADC: %d\012\015\000"
 354      2025640A 
 354      0D00
 355 0156 0000     		.space	2
 356              	.LC10:
 357 0158 48656C70 		.ascii	"Help:\012\015\000"
 357      3A0A0D00 
 358              	.LC11:
 359 0160 09682C48 		.ascii	"\011h,H:\011Help\012\015\000"
ARM GAS  C:\Users\thieu\AppData\Local\Temp\ccugcNKl.s 			page 12


 359      3A094865 
 359      6C700A0D 
 359      00
 360 016d 000000   		.space	3
 361              	.LC12:
 362 0170 09513A09 		.ascii	"\011Q:\011Software Reset\012\015\000"
 362      536F6674 
 362      77617265 
 362      20526573 
 362      65740A0D 
 363 0185 000000   		.space	3
 364              	.LC13:
 365 0188 756E6265 		.ascii	"unbekannte Eingabe <\000"
 365      6B616E6E 
 365      74652045 
 365      696E6761 
 365      6265203C 
 366 019d 000000   		.space	3
 367              	.LC14:
 368 01a0 3E202121 		.ascii	"> !!! \012\015\000"
 368      21200A0D 
 368      00
 369              		.bss
 370              		.align	2
 371              		.set	.LANCHOR0,. + 0
 372              		.type	cRx, %object
 373              		.size	cRx, 1
 374              	cRx:
 375 0000 00       		.space	1
 376 0001 000000   		.space	3
 377              		.type	buffer, %object
 378              		.size	buffer, 128
 379              	buffer:
 380 0004 00000000 		.space	128
 380      00000000 
 380      00000000 
 380      00000000 
 380      00000000 
 381              		.type	i2cByte.6753, %object
 382              		.size	i2cByte.6753, 1
 383              	i2cByte.6753:
 384 0084 00       		.space	1
 385              		.text
 386              	.Letext0:
 387              		.file 2 "e:\\psoc creator\\psoc creator\\4.4\\psoc creator\\import\\gnu\\arm\\5.4.1\\arm-none-eabi
 388              		.file 3 "e:\\psoc creator\\psoc creator\\4.4\\psoc creator\\import\\gnu\\arm\\5.4.1\\arm-none-eabi
 389              		.file 4 "Generated_Source\\PSoC5/UART.h"
 390              		.file 5 "Generated_Source\\PSoC5/I2C.h"
 391              		.file 6 "Generated_Source\\PSoC5/CyLib.h"
 392              		.file 7 "Generated_Source\\PSoC5/ADC_SAR_PD.h"
 393              		.file 8 "e:\\psoc creator\\psoc creator\\4.4\\psoc creator\\import\\gnu\\arm\\5.4.1\\arm-none-eabi
 394              		.file 9 "Generated_Source\\PSoC5/isr_UART_RX.h"
 395              		.file 10 "Generated_Source\\PSoC5/TIA_PD.h"
 396              		.file 11 "Generated_Source\\PSoC5/core_cm3.h"