ARM GAS  C:\Users\thieu\AppData\Local\Temp\ccLEBgmN.s 			page 1


   1              		.syntax unified
   2              		.cpu cortex-m3
   3              		.fpu softvfp
   4              		.eabi_attribute 20, 1
   5              		.eabi_attribute 21, 1
   6              		.eabi_attribute 23, 3
   7              		.eabi_attribute 24, 1
   8              		.eabi_attribute 25, 1
   9              		.eabi_attribute 26, 1
  10              		.eabi_attribute 30, 6
  11              		.eabi_attribute 34, 1
  12              		.eabi_attribute 18, 4
  13              		.thumb
  14              		.syntax unified
  15              		.file	"HAL.c"
  16              		.text
  17              	.Ltext0:
  18              		.cfi_sections	.debug_frame
  19              		.section	.text.switch_north_south_state,"ax",%progbits
  20              		.align	2
  21              		.global	switch_north_south_state
  22              		.thumb
  23              		.thumb_func
  24              		.type	switch_north_south_state, %function
  25              	switch_north_south_state:
  26              	.LFB63:
  27              		.file 1 "HAL.c"
   1:HAL.c         **** #include "HAL.h"
   2:HAL.c         **** 
   3:HAL.c         **** void switch_north_south_state(uint8 r, uint8 y, uint8 g){
  28              		.loc 1 3 0
  29              		.cfi_startproc
  30              		@ args = 0, pretend = 0, frame = 8
  31              		@ frame_needed = 1, uses_anonymous_args = 0
  32 0000 80B5     		push	{r7, lr}
  33              		.cfi_def_cfa_offset 8
  34              		.cfi_offset 7, -8
  35              		.cfi_offset 14, -4
  36 0002 82B0     		sub	sp, sp, #8
  37              		.cfi_def_cfa_offset 16
  38 0004 00AF     		add	r7, sp, #0
  39              		.cfi_def_cfa_register 7
  40 0006 0346     		mov	r3, r0
  41 0008 FB71     		strb	r3, [r7, #7]
  42 000a 0B46     		mov	r3, r1
  43 000c BB71     		strb	r3, [r7, #6]
  44 000e 1346     		mov	r3, r2
  45 0010 7B71     		strb	r3, [r7, #5]
   4:HAL.c         ****      N_R(r), N_Y(y), N_G(g), S_R(r), S_Y(y), S_G(g) ;  
  46              		.loc 1 4 0
  47 0012 FB79     		ldrb	r3, [r7, #7]	@ zero_extendqisi2
  48 0014 1846     		mov	r0, r3
  49 0016 FFF7FEFF 		bl	Pin_N_R_Write
  50 001a BB79     		ldrb	r3, [r7, #6]	@ zero_extendqisi2
  51 001c 1846     		mov	r0, r3
  52 001e FFF7FEFF 		bl	Pin_N_Y_Write
  53 0022 7B79     		ldrb	r3, [r7, #5]	@ zero_extendqisi2
ARM GAS  C:\Users\thieu\AppData\Local\Temp\ccLEBgmN.s 			page 2


  54 0024 1846     		mov	r0, r3
  55 0026 FFF7FEFF 		bl	Pin_N_G_Write
  56 002a FB79     		ldrb	r3, [r7, #7]	@ zero_extendqisi2
  57 002c 1846     		mov	r0, r3
  58 002e FFF7FEFF 		bl	Pin_S_R_Write
  59 0032 BB79     		ldrb	r3, [r7, #6]	@ zero_extendqisi2
  60 0034 1846     		mov	r0, r3
  61 0036 FFF7FEFF 		bl	Pin_S_Y_Write
  62 003a 7B79     		ldrb	r3, [r7, #5]	@ zero_extendqisi2
  63 003c 1846     		mov	r0, r3
  64 003e FFF7FEFF 		bl	Pin_S_G_Write
   5:HAL.c         **** }
  65              		.loc 1 5 0
  66 0042 00BF     		nop
  67 0044 0837     		adds	r7, r7, #8
  68              		.cfi_def_cfa_offset 8
  69 0046 BD46     		mov	sp, r7
  70              		.cfi_def_cfa_register 13
  71              		@ sp needed
  72 0048 80BD     		pop	{r7, pc}
  73              		.cfi_endproc
  74              	.LFE63:
  75              		.size	switch_north_south_state, .-switch_north_south_state
  76 004a 00BF     		.section	.text.switch_east_state,"ax",%progbits
  77              		.align	2
  78              		.global	switch_east_state
  79              		.thumb
  80              		.thumb_func
  81              		.type	switch_east_state, %function
  82              	switch_east_state:
  83              	.LFB64:
   6:HAL.c         **** void switch_east_state(uint8 r, uint8 y, uint8 g){
  84              		.loc 1 6 0
  85              		.cfi_startproc
  86              		@ args = 0, pretend = 0, frame = 8
  87              		@ frame_needed = 1, uses_anonymous_args = 0
  88 0000 80B5     		push	{r7, lr}
  89              		.cfi_def_cfa_offset 8
  90              		.cfi_offset 7, -8
  91              		.cfi_offset 14, -4
  92 0002 82B0     		sub	sp, sp, #8
  93              		.cfi_def_cfa_offset 16
  94 0004 00AF     		add	r7, sp, #0
  95              		.cfi_def_cfa_register 7
  96 0006 0346     		mov	r3, r0
  97 0008 FB71     		strb	r3, [r7, #7]
  98 000a 0B46     		mov	r3, r1
  99 000c BB71     		strb	r3, [r7, #6]
 100 000e 1346     		mov	r3, r2
 101 0010 7B71     		strb	r3, [r7, #5]
   7:HAL.c         ****      W_R(r), W_Y(y), W_G(g);
 102              		.loc 1 7 0
 103 0012 FB79     		ldrb	r3, [r7, #7]	@ zero_extendqisi2
 104 0014 1846     		mov	r0, r3
 105 0016 FFF7FEFF 		bl	Pin_W_R_Write
 106 001a BB79     		ldrb	r3, [r7, #6]	@ zero_extendqisi2
 107 001c 1846     		mov	r0, r3
ARM GAS  C:\Users\thieu\AppData\Local\Temp\ccLEBgmN.s 			page 3


 108 001e FFF7FEFF 		bl	Pin_W_Y_Write
 109 0022 7B79     		ldrb	r3, [r7, #5]	@ zero_extendqisi2
 110 0024 1846     		mov	r0, r3
 111 0026 FFF7FEFF 		bl	Pin_W_G_Write
   8:HAL.c         **** }
 112              		.loc 1 8 0
 113 002a 00BF     		nop
 114 002c 0837     		adds	r7, r7, #8
 115              		.cfi_def_cfa_offset 8
 116 002e BD46     		mov	sp, r7
 117              		.cfi_def_cfa_register 13
 118              		@ sp needed
 119 0030 80BD     		pop	{r7, pc}
 120              		.cfi_endproc
 121              	.LFE64:
 122              		.size	switch_east_state, .-switch_east_state
 123 0032 00BF     		.section	.text.cleanState,"ax",%progbits
 124              		.align	2
 125              		.global	cleanState
 126              		.thumb
 127              		.thumb_func
 128              		.type	cleanState, %function
 129              	cleanState:
 130              	.LFB65:
   9:HAL.c         **** 
  10:HAL.c         ****  // Alle rot 
  11:HAL.c         **** void cleanState(){    
 131              		.loc 1 11 0
 132              		.cfi_startproc
 133              		@ args = 0, pretend = 0, frame = 0
 134              		@ frame_needed = 1, uses_anonymous_args = 0
 135 0000 80B5     		push	{r7, lr}
 136              		.cfi_def_cfa_offset 8
 137              		.cfi_offset 7, -8
 138              		.cfi_offset 14, -4
 139 0002 00AF     		add	r7, sp, #0
 140              		.cfi_def_cfa_register 7
  12:HAL.c         ****    _SET_ALL_LEDS_TO_RED;
 141              		.loc 1 12 0
 142 0004 0122     		movs	r2, #1
 143 0006 0121     		movs	r1, #1
 144 0008 0020     		movs	r0, #0
 145 000a FFF7FEFF 		bl	switch_north_south_state
 146 000e 0122     		movs	r2, #1
 147 0010 0121     		movs	r1, #1
 148 0012 0020     		movs	r0, #0
 149 0014 FFF7FEFF 		bl	switch_east_state
 150 0018 0020     		movs	r0, #0
 151 001a FFF7FEFF 		bl	Pin_S_CW_Write
 152 001e 0020     		movs	r0, #0
 153 0020 FFF7FEFF 		bl	Pin_E_CW_Write
  13:HAL.c         **** }
 154              		.loc 1 13 0
 155 0024 00BF     		nop
 156 0026 80BD     		pop	{r7, pc}
 157              		.cfi_endproc
 158              	.LFE65:
ARM GAS  C:\Users\thieu\AppData\Local\Temp\ccLEBgmN.s 			page 4


 159              		.size	cleanState, .-cleanState
 160              		.section	.text.prepareNorthSouthToDrive,"ax",%progbits
 161              		.align	2
 162              		.global	prepareNorthSouthToDrive
 163              		.thumb
 164              		.thumb_func
 165              		.type	prepareNorthSouthToDrive, %function
 166              	prepareNorthSouthToDrive:
 167              	.LFB66:
  14:HAL.c         **** void prepareNorthSouthToDrive(){
 168              		.loc 1 14 0
 169              		.cfi_startproc
 170              		@ args = 0, pretend = 0, frame = 0
 171              		@ frame_needed = 1, uses_anonymous_args = 0
 172 0000 80B5     		push	{r7, lr}
 173              		.cfi_def_cfa_offset 8
 174              		.cfi_offset 7, -8
 175              		.cfi_offset 14, -4
 176 0002 00AF     		add	r7, sp, #0
 177              		.cfi_def_cfa_register 7
  15:HAL.c         ****     _SET_NORTH_SOUTH_TO_RED_YELLOW;
 178              		.loc 1 15 0
 179 0004 0122     		movs	r2, #1
 180 0006 0021     		movs	r1, #0
 181 0008 0020     		movs	r0, #0
 182 000a FFF7FEFF 		bl	switch_north_south_state
 183 000e 0122     		movs	r2, #1
 184 0010 0121     		movs	r1, #1
 185 0012 0020     		movs	r0, #0
 186 0014 FFF7FEFF 		bl	switch_east_state
 187 0018 0020     		movs	r0, #0
 188 001a FFF7FEFF 		bl	Pin_S_CW_Write
 189 001e 0020     		movs	r0, #0
 190 0020 FFF7FEFF 		bl	Pin_E_CW_Write
  16:HAL.c         **** }
 191              		.loc 1 16 0
 192 0024 00BF     		nop
 193 0026 80BD     		pop	{r7, pc}
 194              		.cfi_endproc
 195              	.LFE66:
 196              		.size	prepareNorthSouthToDrive, .-prepareNorthSouthToDrive
 197              		.section	.text.allowNorthSouthToDrive,"ax",%progbits
 198              		.align	2
 199              		.global	allowNorthSouthToDrive
 200              		.thumb
 201              		.thumb_func
 202              		.type	allowNorthSouthToDrive, %function
 203              	allowNorthSouthToDrive:
 204              	.LFB67:
  17:HAL.c         **** void allowNorthSouthToDrive(){
 205              		.loc 1 17 0
 206              		.cfi_startproc
 207              		@ args = 0, pretend = 0, frame = 0
 208              		@ frame_needed = 1, uses_anonymous_args = 0
 209 0000 80B5     		push	{r7, lr}
 210              		.cfi_def_cfa_offset 8
 211              		.cfi_offset 7, -8
ARM GAS  C:\Users\thieu\AppData\Local\Temp\ccLEBgmN.s 			page 5


 212              		.cfi_offset 14, -4
 213 0002 00AF     		add	r7, sp, #0
 214              		.cfi_def_cfa_register 7
  18:HAL.c         ****     _ALLOW_NORTH_SOUTH_TO_DRIVE;
 215              		.loc 1 18 0
 216 0004 0022     		movs	r2, #0
 217 0006 0121     		movs	r1, #1
 218 0008 0120     		movs	r0, #1
 219 000a FFF7FEFF 		bl	switch_north_south_state
 220 000e 0122     		movs	r2, #1
 221 0010 0121     		movs	r1, #1
 222 0012 0020     		movs	r0, #0
 223 0014 FFF7FEFF 		bl	switch_east_state
 224 0018 0020     		movs	r0, #0
 225 001a FFF7FEFF 		bl	Pin_S_CW_Write
 226 001e 0120     		movs	r0, #1
 227 0020 FFF7FEFF 		bl	Pin_E_CW_Write
  19:HAL.c         **** }
 228              		.loc 1 19 0
 229 0024 00BF     		nop
 230 0026 80BD     		pop	{r7, pc}
 231              		.cfi_endproc
 232              	.LFE67:
 233              		.size	allowNorthSouthToDrive, .-allowNorthSouthToDrive
 234              		.section	.text.prepareNorthSouthToStop,"ax",%progbits
 235              		.align	2
 236              		.global	prepareNorthSouthToStop
 237              		.thumb
 238              		.thumb_func
 239              		.type	prepareNorthSouthToStop, %function
 240              	prepareNorthSouthToStop:
 241              	.LFB68:
  20:HAL.c         **** void prepareNorthSouthToStop(){
 242              		.loc 1 20 0
 243              		.cfi_startproc
 244              		@ args = 0, pretend = 0, frame = 0
 245              		@ frame_needed = 1, uses_anonymous_args = 0
 246 0000 80B5     		push	{r7, lr}
 247              		.cfi_def_cfa_offset 8
 248              		.cfi_offset 7, -8
 249              		.cfi_offset 14, -4
 250 0002 00AF     		add	r7, sp, #0
 251              		.cfi_def_cfa_register 7
  21:HAL.c         ****     _SET_NORTH_SOUTH_TO_YELLOW;
 252              		.loc 1 21 0
 253 0004 0122     		movs	r2, #1
 254 0006 0021     		movs	r1, #0
 255 0008 0120     		movs	r0, #1
 256 000a FFF7FEFF 		bl	switch_north_south_state
 257 000e 0122     		movs	r2, #1
 258 0010 0121     		movs	r1, #1
 259 0012 0020     		movs	r0, #0
 260 0014 FFF7FEFF 		bl	switch_east_state
 261 0018 0020     		movs	r0, #0
 262 001a FFF7FEFF 		bl	Pin_S_CW_Write
 263 001e 0020     		movs	r0, #0
 264 0020 FFF7FEFF 		bl	Pin_E_CW_Write
ARM GAS  C:\Users\thieu\AppData\Local\Temp\ccLEBgmN.s 			page 6


  22:HAL.c         **** }
 265              		.loc 1 22 0
 266 0024 00BF     		nop
 267 0026 80BD     		pop	{r7, pc}
 268              		.cfi_endproc
 269              	.LFE68:
 270              		.size	prepareNorthSouthToStop, .-prepareNorthSouthToStop
 271              		.section	.text.prepareEastWestToDrive,"ax",%progbits
 272              		.align	2
 273              		.global	prepareEastWestToDrive
 274              		.thumb
 275              		.thumb_func
 276              		.type	prepareEastWestToDrive, %function
 277              	prepareEastWestToDrive:
 278              	.LFB69:
  23:HAL.c         **** 
  24:HAL.c         **** void prepareEastWestToDrive(){
 279              		.loc 1 24 0
 280              		.cfi_startproc
 281              		@ args = 0, pretend = 0, frame = 0
 282              		@ frame_needed = 1, uses_anonymous_args = 0
 283 0000 80B5     		push	{r7, lr}
 284              		.cfi_def_cfa_offset 8
 285              		.cfi_offset 7, -8
 286              		.cfi_offset 14, -4
 287 0002 00AF     		add	r7, sp, #0
 288              		.cfi_def_cfa_register 7
  25:HAL.c         ****     _SET_WEST_TO_RED_YELLOW;
 289              		.loc 1 25 0
 290 0004 0122     		movs	r2, #1
 291 0006 0121     		movs	r1, #1
 292 0008 0020     		movs	r0, #0
 293 000a FFF7FEFF 		bl	switch_north_south_state
 294 000e 0122     		movs	r2, #1
 295 0010 0021     		movs	r1, #0
 296 0012 0020     		movs	r0, #0
 297 0014 FFF7FEFF 		bl	switch_east_state
 298 0018 0020     		movs	r0, #0
 299 001a FFF7FEFF 		bl	Pin_S_CW_Write
 300 001e 0020     		movs	r0, #0
 301 0020 FFF7FEFF 		bl	Pin_E_CW_Write
  26:HAL.c         **** }
 302              		.loc 1 26 0
 303 0024 00BF     		nop
 304 0026 80BD     		pop	{r7, pc}
 305              		.cfi_endproc
 306              	.LFE69:
 307              		.size	prepareEastWestToDrive, .-prepareEastWestToDrive
 308              		.section	.text.allowEastWestToDrive,"ax",%progbits
 309              		.align	2
 310              		.global	allowEastWestToDrive
 311              		.thumb
 312              		.thumb_func
 313              		.type	allowEastWestToDrive, %function
 314              	allowEastWestToDrive:
 315              	.LFB70:
  27:HAL.c         **** void allowEastWestToDrive(){
ARM GAS  C:\Users\thieu\AppData\Local\Temp\ccLEBgmN.s 			page 7


 316              		.loc 1 27 0
 317              		.cfi_startproc
 318              		@ args = 0, pretend = 0, frame = 0
 319              		@ frame_needed = 1, uses_anonymous_args = 0
 320 0000 80B5     		push	{r7, lr}
 321              		.cfi_def_cfa_offset 8
 322              		.cfi_offset 7, -8
 323              		.cfi_offset 14, -4
 324 0002 00AF     		add	r7, sp, #0
 325              		.cfi_def_cfa_register 7
  28:HAL.c         ****     _ALLOW_WEST_TO_DRIVE;
 326              		.loc 1 28 0
 327 0004 0122     		movs	r2, #1
 328 0006 0121     		movs	r1, #1
 329 0008 0020     		movs	r0, #0
 330 000a FFF7FEFF 		bl	switch_north_south_state
 331 000e 0022     		movs	r2, #0
 332 0010 0121     		movs	r1, #1
 333 0012 0120     		movs	r0, #1
 334 0014 FFF7FEFF 		bl	switch_east_state
 335 0018 0120     		movs	r0, #1
 336 001a FFF7FEFF 		bl	Pin_S_CW_Write
 337 001e 0020     		movs	r0, #0
 338 0020 FFF7FEFF 		bl	Pin_E_CW_Write
  29:HAL.c         **** }
 339              		.loc 1 29 0
 340 0024 00BF     		nop
 341 0026 80BD     		pop	{r7, pc}
 342              		.cfi_endproc
 343              	.LFE70:
 344              		.size	allowEastWestToDrive, .-allowEastWestToDrive
 345              		.section	.text.prepareEastWestToStop,"ax",%progbits
 346              		.align	2
 347              		.global	prepareEastWestToStop
 348              		.thumb
 349              		.thumb_func
 350              		.type	prepareEastWestToStop, %function
 351              	prepareEastWestToStop:
 352              	.LFB71:
  30:HAL.c         **** void prepareEastWestToStop(){
 353              		.loc 1 30 0
 354              		.cfi_startproc
 355              		@ args = 0, pretend = 0, frame = 0
 356              		@ frame_needed = 1, uses_anonymous_args = 0
 357 0000 80B5     		push	{r7, lr}
 358              		.cfi_def_cfa_offset 8
 359              		.cfi_offset 7, -8
 360              		.cfi_offset 14, -4
 361 0002 00AF     		add	r7, sp, #0
 362              		.cfi_def_cfa_register 7
  31:HAL.c         ****     _SET_WEST_TO_YELLOW;
 363              		.loc 1 31 0
 364 0004 0122     		movs	r2, #1
 365 0006 0121     		movs	r1, #1
 366 0008 0020     		movs	r0, #0
 367 000a FFF7FEFF 		bl	switch_north_south_state
 368 000e 0122     		movs	r2, #1
ARM GAS  C:\Users\thieu\AppData\Local\Temp\ccLEBgmN.s 			page 8


 369 0010 0021     		movs	r1, #0
 370 0012 0120     		movs	r0, #1
 371 0014 FFF7FEFF 		bl	switch_east_state
 372 0018 0020     		movs	r0, #0
 373 001a FFF7FEFF 		bl	Pin_S_CW_Write
 374 001e 0020     		movs	r0, #0
 375 0020 FFF7FEFF 		bl	Pin_E_CW_Write
  32:HAL.c         **** }
 376              		.loc 1 32 0
 377 0024 00BF     		nop
 378 0026 80BD     		pop	{r7, pc}
 379              		.cfi_endproc
 380              	.LFE71:
 381              		.size	prepareEastWestToStop, .-prepareEastWestToStop
 382              		.text
 383              	.Letext0:
 384              		.file 2 "e:\\psoc creator\\psoc creator\\4.4\\psoc creator\\import\\gnu\\arm\\5.4.1\\arm-none-eabi
 385              		.file 3 "e:\\psoc creator\\psoc creator\\4.4\\psoc creator\\import\\gnu\\arm\\5.4.1\\arm-none-eabi
 386              		.file 4 "Generated_Source\\PSoC5/cytypes.h"
 387              		.file 5 "Generated_Source\\PSoC5/core_cm3.h"