ARM GAS  C:\Users\thieu\AppData\Local\Temp\ccnAHIBf.s 			page 1


   1              		.syntax unified
   2              		.cpu cortex-m3
   3              		.fpu softvfp
   4              		.eabi_attribute 20, 1
   5              		.eabi_attribute 21, 1
   6              		.eabi_attribute 23, 3
   7              		.eabi_attribute 24, 1
   8              		.eabi_attribute 25, 1
   9              		.eabi_attribute 26, 1
  10              		.eabi_attribute 30, 6
  11              		.eabi_attribute 34, 1
  12              		.eabi_attribute 18, 4
  13              		.thumb
  14              		.syntax unified
  15              		.file	"main.c"
  16              		.text
  17              	.Ltext0:
  18              		.cfi_sections	.debug_frame
  19              		.bss
  20              		.align	2
  21              	buffer:
  22 0000 00000000 		.space	128
  22      00000000 
  22      00000000 
  22      00000000 
  22      00000000 
  23              	cRx:
  24 0080 00       		.space	1
  25              		.section	.text.MyIsrUartRX,"ax",%progbits
  26              		.align	2
  27              		.global	MyIsrUartRX
  28              		.thumb
  29              		.thumb_func
  30              		.type	MyIsrUartRX, %function
  31              	MyIsrUartRX:
  32              	.LFB64:
  33              		.file 1 "main.c"
   1:main.c        **** /* ========================================
   2:main.c        ****  *
   3:main.c        ****  * Copyright R. Mayer, h_da, FbI, 2019
   4:main.c        ****  * All Rights Reserved
   5:main.c        ****  * UNPUBLISHED, LICENSED SOFTWARE.
   6:main.c        ****  *
   7:main.c        ****  * CONFIDENTIAL AND PROPRIETARY INFORMATION
   8:main.c        ****  * WHICH IS THE PROPERTY OF your company.
   9:main.c        ****  *
  10:main.c        ****  * ========================================
  11:main.c        ****  */
  12:main.c        **** #include "project.h"
  13:main.c        **** #include <stdio.h>          // für string-Operationen wie sprintf
  14:main.c        **** #include<HAL.h>
  15:main.c        **** 
  16:main.c        **** /*
  17:main.c        ****  * Diese Definitionen ermöglichen es, 
  18:main.c        ****  * einfach Informationen auf den Bildschirm zu schreiben
  19:main.c        ****  */
  20:main.c        **** #define _VERSION_NR     "ver. 1.0"              //!< Version number. Please update
ARM GAS  C:\Users\thieu\AppData\Local\Temp\ccnAHIBf.s 			page 2


  21:main.c        **** #define _PROJECT_NAME   "MPS_W22_Prakt_3"       //!< Project name
  22:main.c        **** #define _PROCESSOR      "PSoC 5LP"              //!< Processor type
  23:main.c        **** #define _DEVICE_NAME    "FreeSoC2"              //!< Board or device type
  24:main.c        **** #define _AUTHOR_        "Ingo Knito und Arno Nym"
  25:main.c        **** #define _COMPANY        "Template MPS 3"
  26:main.c        **** 
  27:main.c        **** /* ++++++++++++++++++++++++++++++++++
  28:main.c        ****  * +++ Switche für Musterlösungen +++ 
  29:main.c        ****  * ++++++++++++++++++++++++++++++++++ */
  30:main.c        **** 
  31:main.c        **** // String für die Anzeige zusammenbauen
  32:main.c        **** #define _VERSTR_       (_PROJECT_NAME", "_DEVICE_NAME", "_PROCESSOR", "_VERSION_NR"\n\r"\
  33:main.c        **** _AUTHOR_" ("_COMPANY"), "__DATE__" "__TIME__)
  34:main.c        **** 
  35:main.c        **** /* 
  36:main.c        ****  * String Buffer für Anzeige am Bildschirm anlegen.
  37:main.c        ****  * Auf die maximale Größe achten!
  38:main.c        ****  */
  39:main.c        **** #define BUFFER_SIZE 128             //!< string output buffer size for sprintf
  40:main.c        **** static char buffer[BUFFER_SIZE];    //!< buffer (global) for sprintf
  41:main.c        **** 
  42:main.c        **** static char cRx = 0;                //!< character from UART, visible within main.c
  43:main.c        **** /** 
  44:main.c        ****  * UART RX interrupt service routine.
  45:main.c        ****  *
  46:main.c        ****  * Collect a characters from UART into a global input variable.
  47:main.c        ****  * @see cRx
  48:main.c        ****  */
  49:main.c        **** CY_ISR( MyIsrUartRX ) {
  34              		.loc 1 49 0
  35              		.cfi_startproc
  36              		@ args = 0, pretend = 0, frame = 0
  37              		@ frame_needed = 1, uses_anonymous_args = 0
  38 0000 80B5     		push	{r7, lr}
  39              		.cfi_def_cfa_offset 8
  40              		.cfi_offset 7, -8
  41              		.cfi_offset 14, -4
  42 0002 00AF     		add	r7, sp, #0
  43              		.cfi_def_cfa_register 7
  50:main.c        ****     cRx = UART_GetChar();       // read and copy char
  44              		.loc 1 50 0
  45 0004 FFF7FEFF 		bl	UART_GetChar
  46 0008 0346     		mov	r3, r0
  47 000a 1A46     		mov	r2, r3
  48 000c 014B     		ldr	r3, .L2
  49 000e 1A70     		strb	r2, [r3]
  51:main.c        **** }
  50              		.loc 1 51 0
  51 0010 00BF     		nop
  52 0012 80BD     		pop	{r7, pc}
  53              	.L3:
  54              		.align	2
  55              	.L2:
  56 0014 80000000 		.word	cRx
  57              		.cfi_endproc
  58              	.LFE64:
  59              		.size	MyIsrUartRX, .-MyIsrUartRX
ARM GAS  C:\Users\thieu\AppData\Local\Temp\ccnAHIBf.s 			page 3


  60              		.bss
  61              	fCWEW_Isr:
  62 0081 00       		.space	1
  63              		.section	.text.MyIsrCWEW,"ax",%progbits
  64              		.align	2
  65              		.global	MyIsrCWEW
  66              		.thumb
  67              		.thumb_func
  68              		.type	MyIsrCWEW, %function
  69              	MyIsrCWEW:
  70              	.LFB65:
  52:main.c        **** 
  53:main.c        **** static uint8_t fCWEW_Isr = 0;   //!< flag CW EW button isr, visible within main.c
  54:main.c        **** /** 
  55:main.c        ****  * Interrupt isr_CWSN for button Pin_CWSN interrupt service routine.
  56:main.c        ****  *
  57:main.c        ****  * @see fCWEW_Isr
  58:main.c        ****  */
  59:main.c        **** CY_ISR( MyIsrCWEW ) {
  71              		.loc 1 59 0
  72              		.cfi_startproc
  73              		@ args = 0, pretend = 0, frame = 0
  74              		@ frame_needed = 1, uses_anonymous_args = 0
  75 0000 80B5     		push	{r7, lr}
  76              		.cfi_def_cfa_offset 8
  77              		.cfi_offset 7, -8
  78              		.cfi_offset 14, -4
  79 0002 00AF     		add	r7, sp, #0
  80              		.cfi_def_cfa_register 7
  60:main.c        ****     /* Clear Interrupt first ! */
  61:main.c        ****     Pin_CWEW_ClearInterrupt();
  81              		.loc 1 61 0
  82 0004 FFF7FEFF 		bl	Pin_CWEW_ClearInterrupt
  62:main.c        ****     fCWEW_Isr = 1;              // set flag
  83              		.loc 1 62 0
  84 0008 024B     		ldr	r3, .L5
  85 000a 0122     		movs	r2, #1
  86 000c 1A70     		strb	r2, [r3]
  63:main.c        **** }
  87              		.loc 1 63 0
  88 000e 00BF     		nop
  89 0010 80BD     		pop	{r7, pc}
  90              	.L6:
  91 0012 00BF     		.align	2
  92              	.L5:
  93 0014 81000000 		.word	fCWEW_Isr
  94              		.cfi_endproc
  95              	.LFE65:
  96              		.size	MyIsrCWEW, .-MyIsrCWEW
  97              		.bss
  98              	fsClock:
  99 0082 00       		.space	1
 100 0083 00       		.align	2
 101              	count_ms:
 102 0084 00000000 		.space	4
 103              		.align	2
 104              	timer:
ARM GAS  C:\Users\thieu\AppData\Local\Temp\ccnAHIBf.s 			page 4


 105 0088 00000000 		.space	4
 106              		.align	2
 107              	zustand:
 108 008c 00000000 		.space	4
 109              		.section	.text.IsrAppClk,"ax",%progbits
 110              		.align	2
 111              		.global	IsrAppClk
 112              		.thumb
 113              		.thumb_func
 114              		.type	IsrAppClk, %function
 115              	IsrAppClk:
 116              	.LFB66:
  64:main.c        **** 
  65:main.c        **** static uint8_t  fsClock = 0;    //!< s flag
  66:main.c        **** static uint32_t count_ms = 0;   //!< ms count since start
  67:main.c        **** /** 
  68:main.c        ****  * Application clock interrupt service routine for isr_Clk
  69:main.c        ****  *
  70:main.c        ****  * @see fClock
  71:main.c        ****  */
  72:main.c        **** static uint32_t timer = 0;
  73:main.c        **** static uint32_t zustand  = 0;
  74:main.c        **** CY_ISR( IsrAppClk ) {
 117              		.loc 1 74 0
 118              		.cfi_startproc
 119              		@ args = 0, pretend = 0, frame = 0
 120              		@ frame_needed = 1, uses_anonymous_args = 0
 121              		@ link register save eliminated.
 122 0000 80B4     		push	{r7}
 123              		.cfi_def_cfa_offset 4
 124              		.cfi_offset 7, -4
 125 0002 00AF     		add	r7, sp, #0
 126              		.cfi_def_cfa_register 7
  75:main.c        ****     count_ms++;                     // increment ms timestamp
 127              		.loc 1 75 0
 128 0004 0C4B     		ldr	r3, .L10
 129 0006 1B68     		ldr	r3, [r3]
 130 0008 0133     		adds	r3, r3, #1
 131 000a 0B4A     		ldr	r2, .L10
 132 000c 1360     		str	r3, [r2]
  76:main.c        ****     if ( (count_ms > 1000) ) { // next 1 s reached, set back to > 1000 as prak 2
 133              		.loc 1 76 0
 134 000e 0A4B     		ldr	r3, .L10
 135 0010 1B68     		ldr	r3, [r3]
 136 0012 B3F57A7F 		cmp	r3, #1000
 137 0016 0AD9     		bls	.L9
  77:main.c        ****        fsClock = 1;                 // set flag
 138              		.loc 1 77 0
 139 0018 084B     		ldr	r3, .L10+4
 140 001a 0122     		movs	r2, #1
 141 001c 1A70     		strb	r2, [r3]
  78:main.c        ****         timer++;
 142              		.loc 1 78 0
 143 001e 084B     		ldr	r3, .L10+8
 144 0020 1B68     		ldr	r3, [r3]
 145 0022 0133     		adds	r3, r3, #1
 146 0024 064A     		ldr	r2, .L10+8
ARM GAS  C:\Users\thieu\AppData\Local\Temp\ccnAHIBf.s 			page 5


 147 0026 1360     		str	r3, [r2]
  79:main.c        ****         count_ms = 0;
 148              		.loc 1 79 0
 149 0028 034B     		ldr	r3, .L10
 150 002a 0022     		movs	r2, #0
 151 002c 1A60     		str	r2, [r3]
 152              	.L9:
  80:main.c        ****     }
  81:main.c        **** }
 153              		.loc 1 81 0
 154 002e 00BF     		nop
 155 0030 BD46     		mov	sp, r7
 156              		.cfi_def_cfa_register 13
 157              		@ sp needed
 158 0032 80BC     		pop	{r7}
 159              		.cfi_restore 7
 160              		.cfi_def_cfa_offset 0
 161 0034 7047     		bx	lr
 162              	.L11:
 163 0036 00BF     		.align	2
 164              	.L10:
 165 0038 84000000 		.word	count_ms
 166 003c 82000000 		.word	fsClock
 167 0040 88000000 		.word	timer
 168              		.cfi_endproc
 169              	.LFE66:
 170              		.size	IsrAppClk, .-IsrAppClk
 171              		.data
 172              		.align	1
 173              		.type	brightness, %object
 174              		.size	brightness, 2
 175              	brightness:
 176 0000 2C01     		.short	300
 177              		.section	.text.brightness_settings,"ax",%progbits
 178              		.align	2
 179              		.global	brightness_settings
 180              		.thumb
 181              		.thumb_func
 182              		.type	brightness_settings, %function
 183              	brightness_settings:
 184              	.LFB67:
  82:main.c        **** 
  83:main.c        **** static uint16 brightness = 300;
  84:main.c        **** 
  85:main.c        **** 
  86:main.c        **** // change the avarage power to change brightness
  87:main.c        **** void brightness_settings(u_int input){
 185              		.loc 1 87 0
 186              		.cfi_startproc
 187              		@ args = 0, pretend = 0, frame = 8
 188              		@ frame_needed = 1, uses_anonymous_args = 0
 189 0000 80B5     		push	{r7, lr}
 190              		.cfi_def_cfa_offset 8
 191              		.cfi_offset 7, -8
 192              		.cfi_offset 14, -4
 193 0002 82B0     		sub	sp, sp, #8
 194              		.cfi_def_cfa_offset 16
ARM GAS  C:\Users\thieu\AppData\Local\Temp\ccnAHIBf.s 			page 6


 195 0004 00AF     		add	r7, sp, #0
 196              		.cfi_def_cfa_register 7
 197 0006 7860     		str	r0, [r7, #4]
  88:main.c        ****     if(input && brightness < 1000){
 198              		.loc 1 88 0
 199 0008 7B68     		ldr	r3, [r7, #4]
 200 000a 002B     		cmp	r3, #0
 201 000c 10D0     		beq	.L13
 202              		.loc 1 88 0 is_stmt 0 discriminator 1
 203 000e 1B4B     		ldr	r3, .L16
 204 0010 1B88     		ldrh	r3, [r3]
 205 0012 B3F57A7F 		cmp	r3, #1000
 206 0016 0BD2     		bcs	.L13
  89:main.c        ****         //uint16 test = PWM_ReadCompare();
  90:main.c        ****         brightness = brightness + 200;
 207              		.loc 1 90 0 is_stmt 1
 208 0018 184B     		ldr	r3, .L16
 209 001a 1B88     		ldrh	r3, [r3]
 210 001c C833     		adds	r3, r3, #200
 211 001e 9AB2     		uxth	r2, r3
 212 0020 164B     		ldr	r3, .L16
 213 0022 1A80     		strh	r2, [r3]	@ movhi
  91:main.c        ****         PWM_WriteCompare( brightness);
 214              		.loc 1 91 0
 215 0024 154B     		ldr	r3, .L16
 216 0026 1B88     		ldrh	r3, [r3]
 217 0028 1846     		mov	r0, r3
 218 002a FFF7FEFF 		bl	PWM_WriteCompare
  92:main.c        ****         return;
 219              		.loc 1 92 0
 220 002e 21E0     		b	.L12
 221              	.L13:
  93:main.c        ****         
  94:main.c        ****     }else if(!input && brightness <= 100){
 222              		.loc 1 94 0
 223 0030 7B68     		ldr	r3, [r7, #4]
 224 0032 002B     		cmp	r3, #0
 225 0034 0FD1     		bne	.L15
 226              		.loc 1 94 0 is_stmt 0 discriminator 1
 227 0036 114B     		ldr	r3, .L16
 228 0038 1B88     		ldrh	r3, [r3]
 229 003a 642B     		cmp	r3, #100
 230 003c 0BD8     		bhi	.L15
  95:main.c        ****         brightness = brightness + 100;
 231              		.loc 1 95 0 is_stmt 1
 232 003e 0F4B     		ldr	r3, .L16
 233 0040 1B88     		ldrh	r3, [r3]
 234 0042 6433     		adds	r3, r3, #100
 235 0044 9AB2     		uxth	r2, r3
 236 0046 0D4B     		ldr	r3, .L16
 237 0048 1A80     		strh	r2, [r3]	@ movhi
  96:main.c        ****         PWM_WriteCompare(brightness);
 238              		.loc 1 96 0
 239 004a 0C4B     		ldr	r3, .L16
 240 004c 1B88     		ldrh	r3, [r3]
 241 004e 1846     		mov	r0, r3
 242 0050 FFF7FEFF 		bl	PWM_WriteCompare
ARM GAS  C:\Users\thieu\AppData\Local\Temp\ccnAHIBf.s 			page 7


  97:main.c        ****         return;
 243              		.loc 1 97 0
 244 0054 0EE0     		b	.L12
 245              	.L15:
  98:main.c        ****     }
  99:main.c        ****     else if(!input) {
 246              		.loc 1 99 0
 247 0056 7B68     		ldr	r3, [r7, #4]
 248 0058 002B     		cmp	r3, #0
 249 005a 0BD1     		bne	.L12
 100:main.c        ****         brightness = brightness -200;
 250              		.loc 1 100 0
 251 005c 074B     		ldr	r3, .L16
 252 005e 1B88     		ldrh	r3, [r3]
 253 0060 C83B     		subs	r3, r3, #200
 254 0062 9AB2     		uxth	r2, r3
 255 0064 054B     		ldr	r3, .L16
 256 0066 1A80     		strh	r2, [r3]	@ movhi
 101:main.c        ****         PWM_WriteCompare(brightness);
 257              		.loc 1 101 0
 258 0068 044B     		ldr	r3, .L16
 259 006a 1B88     		ldrh	r3, [r3]
 260 006c 1846     		mov	r0, r3
 261 006e FFF7FEFF 		bl	PWM_WriteCompare
 102:main.c        ****         return;
 262              		.loc 1 102 0
 263 0072 00BF     		nop
 264              	.L12:
 103:main.c        ****     }
 104:main.c        ****    
 105:main.c        ****     
 106:main.c        **** }
 265              		.loc 1 106 0
 266 0074 0837     		adds	r7, r7, #8
 267              		.cfi_def_cfa_offset 8
 268 0076 BD46     		mov	sp, r7
 269              		.cfi_def_cfa_register 13
 270              		@ sp needed
 271 0078 80BD     		pop	{r7, pc}
 272              	.L17:
 273 007a 00BF     		.align	2
 274              	.L16:
 275 007c 00000000 		.word	brightness
 276              		.cfi_endproc
 277              	.LFE67:
 278              		.size	brightness_settings, .-brightness_settings
 279              		.section	.rodata
 280              		.align	2
 281              	.LC0:
 282 0000 4D50535F 		.ascii	"MPS_W22_Prakt_3, FreeSoC2, PSoC 5LP, ver. 1.0\012\015"
 282      5732325F 
 282      5072616B 
 282      745F332C 
 282      20467265 
 283 002f 496E676F 		.ascii	"Ingo Knito und Arno Nym (Template MPS 3), Dec 12 20"
 283      204B6E69 
 283      746F2075 
ARM GAS  C:\Users\thieu\AppData\Local\Temp\ccnAHIBf.s 			page 8


 283      6E642041 
 283      726E6F20 
 284 0062 32322031 		.ascii	"22 16:25:02\000"
 284      363A3235 
 284      3A303200 
 285 006e 0000     		.align	2
 286              	.LC1:
 287 0070 0A0D5765 		.ascii	"\012\015Welcome! %s\012\015\000"
 287      6C636F6D 
 287      65212025 
 287      730A0D00 
 288              		.align	2
 289              	.LC2:
 290 0080 0A0D4865 		.ascii	"\012\015Help:\012\015\011h,H: help\012\015\011c: cl"
 290      6C703A0A 
 290      0D09682C 
 290      483A2068 
 290      656C700A 
 291 009b 65617220 		.ascii	"ear screen\012\015\011q,Q: software reset\012\015\000"
 291      73637265 
 291      656E0A0D 
 291      09712C51 
 291      3A20736F 
 292 00be 0000     		.align	2
 293              	.LC3:
 294 00c0 1B5B324A 		.ascii	"\033[2J\033[H\000"
 294      1B5B4800 
 295              		.align	2
 296              	.LC4:
 297 00c8 62726967 		.ascii	"brightness: %d \012\000"
 297      68746E65 
 297      73733A20 
 297      2564200A 
 297      00
 298              		.section	.text.main,"ax",%progbits
 299              		.align	2
 300              		.global	main
 301              		.thumb
 302              		.thumb_func
 303              		.type	main, %function
 304              	main:
 305              	.LFB68:
 107:main.c        **** /**
 108:main.c        ****  * Basisprojekt mit UART mit Interrupt, User Button mit Interrupt und Statusabfrage. 
 109:main.c        ****  * Pin-I/O Einfache Eingabe mit Button, Ausgabe mit LED
 110:main.c        ****  * für FreeSoC2
 111:main.c        ****  * 
 112:main.c        ****  * @author Ralf S. Mayer
 113:main.c        ****  * @date 2022-11-25
 114:main.c        ****  * @version 1.0
 115:main.c        ****  */
 116:main.c        **** int main(void)
 117:main.c        **** {   
 306              		.loc 1 117 0
 307              		.cfi_startproc
 308              		@ args = 0, pretend = 0, frame = 8
 309              		@ frame_needed = 1, uses_anonymous_args = 0
ARM GAS  C:\Users\thieu\AppData\Local\Temp\ccnAHIBf.s 			page 9


 310 0000 80B5     		push	{r7, lr}
 311              		.cfi_def_cfa_offset 8
 312              		.cfi_offset 7, -8
 313              		.cfi_offset 14, -4
 314 0002 82B0     		sub	sp, sp, #8
 315              		.cfi_def_cfa_offset 16
 316 0004 00AF     		add	r7, sp, #0
 317              		.cfi_def_cfa_register 7
 118:main.c        ****     /* Initialize and start UART, register ISR */
 119:main.c        ****     UART_Start();                       // start UART
 318              		.loc 1 119 0
 319 0006 FFF7FEFF 		bl	UART_Start
 120:main.c        ****     isr_UART_RX_StartEx( MyIsrUartRX ); // register ISR, enable itr uart
 320              		.loc 1 120 0
 321 000a 7C48     		ldr	r0, .L41
 322 000c FFF7FEFF 		bl	isr_UART_RX_StartEx
 121:main.c        ****     
 122:main.c        ****     /* Initialize and start MyIsrCWEW, register ISR */
 123:main.c        ****     isr_CWEW_StartEx( MyIsrCWEW );      // register CWEW itr
 323              		.loc 1 123 0
 324 0010 7B48     		ldr	r0, .L41+4
 325 0012 FFF7FEFF 		bl	isr_CWEW_StartEx
 124:main.c        ****     Pin_CWEW_ClearInterrupt();          // clear eventual interrupt
 326              		.loc 1 124 0
 327 0016 FFF7FEFF 		bl	Pin_CWEW_ClearInterrupt
 125:main.c        ****     isr_CWEW_ClearPending();            // clear eventual pending interrupt
 328              		.loc 1 125 0
 329 001a FFF7FEFF 		bl	isr_CWEW_ClearPending
 126:main.c        ****     
 127:main.c        ****     /* Initialize PWM */
 128:main.c        ****     PWM_Start();                        // start PWM
 330              		.loc 1 128 0
 331 001e FFF7FEFF 		bl	PWM_Start
 129:main.c        **** 
 130:main.c        ****     /* Register isr_Clk interrupt and service routine */
 131:main.c        ****     isr_Clk_StartEx( IsrAppClk );       // register and start application clock ISR
 332              		.loc 1 131 0
 333 0022 7848     		ldr	r0, .L41+8
 334 0024 FFF7FEFF 		bl	isr_Clk_StartEx
 132:main.c        ****     
 133:main.c        ****     CyGlobalIntEnable;                  /* Enable global interrupts. */
 335              		.loc 1 133 0
 336              		.syntax unified
 337              	@ 133 "main.c" 1
 338 0028 62B6     		CPSIE   i
 339              	@ 0 "" 2
 134:main.c        **** 
 135:main.c        ****     /* Welcome and info text Ausgabe */
 136:main.c        ****     sprintf( buffer, "\n\rWelcome! %s\n\r", _VERSTR_);  // formatiert in Buffer
 340              		.loc 1 136 0
 341              		.thumb
 342              		.syntax unified
 343 002a 774A     		ldr	r2, .L41+12
 344 002c 7749     		ldr	r1, .L41+16
 345 002e 7848     		ldr	r0, .L41+20
 346 0030 FFF7FEFF 		bl	sprintf
 137:main.c        ****     UART_PutString( buffer );                           // Ausgabe auf UART
ARM GAS  C:\Users\thieu\AppData\Local\Temp\ccnAHIBf.s 			page 10


 347              		.loc 1 137 0
 348 0034 7648     		ldr	r0, .L41+20
 349 0036 FFF7FEFF 		bl	UART_PutString
 138:main.c        ****     cRx = 'h';                                          // was passiert?
 350              		.loc 1 138 0
 351 003a 764B     		ldr	r3, .L41+24
 352 003c 6822     		movs	r2, #104
 353 003e 1A70     		strb	r2, [r3]
 354              	.L40:
 139:main.c        ****     
 140:main.c        ****     // Applikationsschleife
 141:main.c        ****     for(;;)
 142:main.c        ****     {
 143:main.c        ****         if ( fsClock ) {
 355              		.loc 1 143 0
 356 0040 754B     		ldr	r3, .L41+28
 357 0042 1B78     		ldrb	r3, [r3]	@ zero_extendqisi2
 358 0044 002B     		cmp	r3, #0
 359 0046 00F09180 		beq	.L19
 144:main.c        ****             fsClock = 0;    // don't forget
 360              		.loc 1 144 0
 361 004a 734B     		ldr	r3, .L41+28
 362 004c 0022     		movs	r2, #0
 363 004e 1A70     		strb	r2, [r3]
 145:main.c        ****             // TODO Ampelsteuerung
 146:main.c        ****              if(zustand == 0 && timer == 1) {
 364              		.loc 1 146 0
 365 0050 724B     		ldr	r3, .L41+32
 366 0052 1B68     		ldr	r3, [r3]
 367 0054 002B     		cmp	r3, #0
 368 0056 0DD1     		bne	.L20
 369              		.loc 1 146 0 is_stmt 0 discriminator 1
 370 0058 714B     		ldr	r3, .L41+36
 371 005a 1B68     		ldr	r3, [r3]
 372 005c 012B     		cmp	r3, #1
 373 005e 09D1     		bne	.L20
 147:main.c        ****                 cleanState(); // Alle rot
 374              		.loc 1 147 0 is_stmt 1
 375 0060 FFF7FEFF 		bl	cleanState
 148:main.c        ****                 zustand++;
 376              		.loc 1 148 0
 377 0064 6D4B     		ldr	r3, .L41+32
 378 0066 1B68     		ldr	r3, [r3]
 379 0068 0133     		adds	r3, r3, #1
 380 006a 6C4A     		ldr	r2, .L41+32
 381 006c 1360     		str	r3, [r2]
 149:main.c        ****                 timer = 0;
 382              		.loc 1 149 0
 383 006e 6C4B     		ldr	r3, .L41+36
 384 0070 0022     		movs	r2, #0
 385 0072 1A60     		str	r2, [r3]
 386              	.L20:
 150:main.c        ****             }           
 151:main.c        ****             if(zustand == 1 && timer == 1) {               
 387              		.loc 1 151 0
 388 0074 694B     		ldr	r3, .L41+32
 389 0076 1B68     		ldr	r3, [r3]
ARM GAS  C:\Users\thieu\AppData\Local\Temp\ccnAHIBf.s 			page 11


 390 0078 012B     		cmp	r3, #1
 391 007a 0DD1     		bne	.L21
 392              		.loc 1 151 0 is_stmt 0 discriminator 1
 393 007c 684B     		ldr	r3, .L41+36
 394 007e 1B68     		ldr	r3, [r3]
 395 0080 012B     		cmp	r3, #1
 396 0082 09D1     		bne	.L21
 152:main.c        ****                 prepareNorthSouthToDrive();
 397              		.loc 1 152 0 is_stmt 1
 398 0084 FFF7FEFF 		bl	prepareNorthSouthToDrive
 153:main.c        ****                 zustand++;
 399              		.loc 1 153 0
 400 0088 644B     		ldr	r3, .L41+32
 401 008a 1B68     		ldr	r3, [r3]
 402 008c 0133     		adds	r3, r3, #1
 403 008e 634A     		ldr	r2, .L41+32
 404 0090 1360     		str	r3, [r2]
 154:main.c        ****                 timer = 0;               
 405              		.loc 1 154 0
 406 0092 634B     		ldr	r3, .L41+36
 407 0094 0022     		movs	r2, #0
 408 0096 1A60     		str	r2, [r3]
 409              	.L21:
 155:main.c        ****             }            
 156:main.c        ****             if(zustand == 2 && timer == 1) {
 410              		.loc 1 156 0
 411 0098 604B     		ldr	r3, .L41+32
 412 009a 1B68     		ldr	r3, [r3]
 413 009c 022B     		cmp	r3, #2
 414 009e 0DD1     		bne	.L22
 415              		.loc 1 156 0 is_stmt 0 discriminator 1
 416 00a0 5F4B     		ldr	r3, .L41+36
 417 00a2 1B68     		ldr	r3, [r3]
 418 00a4 012B     		cmp	r3, #1
 419 00a6 09D1     		bne	.L22
 157:main.c        ****                 allowNorthSouthToDrive();
 420              		.loc 1 157 0 is_stmt 1
 421 00a8 FFF7FEFF 		bl	allowNorthSouthToDrive
 158:main.c        ****                 zustand++;
 422              		.loc 1 158 0
 423 00ac 5B4B     		ldr	r3, .L41+32
 424 00ae 1B68     		ldr	r3, [r3]
 425 00b0 0133     		adds	r3, r3, #1
 426 00b2 5A4A     		ldr	r2, .L41+32
 427 00b4 1360     		str	r3, [r2]
 159:main.c        ****                 timer = 0;
 428              		.loc 1 159 0
 429 00b6 5A4B     		ldr	r3, .L41+36
 430 00b8 0022     		movs	r2, #0
 431 00ba 1A60     		str	r2, [r3]
 432              	.L22:
 160:main.c        ****             }            
 161:main.c        ****             if(zustand == 3 && timer == 3) {
 433              		.loc 1 161 0
 434 00bc 574B     		ldr	r3, .L41+32
 435 00be 1B68     		ldr	r3, [r3]
 436 00c0 032B     		cmp	r3, #3
ARM GAS  C:\Users\thieu\AppData\Local\Temp\ccnAHIBf.s 			page 12


 437 00c2 0DD1     		bne	.L23
 438              		.loc 1 161 0 is_stmt 0 discriminator 1
 439 00c4 564B     		ldr	r3, .L41+36
 440 00c6 1B68     		ldr	r3, [r3]
 441 00c8 032B     		cmp	r3, #3
 442 00ca 09D1     		bne	.L23
 162:main.c        ****                 prepareNorthSouthToStop();
 443              		.loc 1 162 0 is_stmt 1
 444 00cc FFF7FEFF 		bl	prepareNorthSouthToStop
 163:main.c        ****                 zustand++;
 445              		.loc 1 163 0
 446 00d0 524B     		ldr	r3, .L41+32
 447 00d2 1B68     		ldr	r3, [r3]
 448 00d4 0133     		adds	r3, r3, #1
 449 00d6 514A     		ldr	r2, .L41+32
 450 00d8 1360     		str	r3, [r2]
 164:main.c        ****                 timer = 0;
 451              		.loc 1 164 0
 452 00da 514B     		ldr	r3, .L41+36
 453 00dc 0022     		movs	r2, #0
 454 00de 1A60     		str	r2, [r3]
 455              	.L23:
 165:main.c        ****             }
 166:main.c        ****             if(zustand == 4 && timer == 1) {
 456              		.loc 1 166 0
 457 00e0 4E4B     		ldr	r3, .L41+32
 458 00e2 1B68     		ldr	r3, [r3]
 459 00e4 042B     		cmp	r3, #4
 460 00e6 0DD1     		bne	.L24
 461              		.loc 1 166 0 is_stmt 0 discriminator 1
 462 00e8 4D4B     		ldr	r3, .L41+36
 463 00ea 1B68     		ldr	r3, [r3]
 464 00ec 012B     		cmp	r3, #1
 465 00ee 09D1     		bne	.L24
 167:main.c        ****                 cleanState();
 466              		.loc 1 167 0 is_stmt 1
 467 00f0 FFF7FEFF 		bl	cleanState
 168:main.c        ****                 zustand++;
 468              		.loc 1 168 0
 469 00f4 494B     		ldr	r3, .L41+32
 470 00f6 1B68     		ldr	r3, [r3]
 471 00f8 0133     		adds	r3, r3, #1
 472 00fa 484A     		ldr	r2, .L41+32
 473 00fc 1360     		str	r3, [r2]
 169:main.c        ****                 timer = 0;
 474              		.loc 1 169 0
 475 00fe 484B     		ldr	r3, .L41+36
 476 0100 0022     		movs	r2, #0
 477 0102 1A60     		str	r2, [r3]
 478              	.L24:
 170:main.c        ****             }            
 171:main.c        ****             if(zustand == 5 && timer == 1) {
 479              		.loc 1 171 0
 480 0104 454B     		ldr	r3, .L41+32
 481 0106 1B68     		ldr	r3, [r3]
 482 0108 052B     		cmp	r3, #5
 483 010a 0DD1     		bne	.L25
ARM GAS  C:\Users\thieu\AppData\Local\Temp\ccnAHIBf.s 			page 13


 484              		.loc 1 171 0 is_stmt 0 discriminator 1
 485 010c 444B     		ldr	r3, .L41+36
 486 010e 1B68     		ldr	r3, [r3]
 487 0110 012B     		cmp	r3, #1
 488 0112 09D1     		bne	.L25
 172:main.c        ****                 prepareEastWestToDrive();
 489              		.loc 1 172 0 is_stmt 1
 490 0114 FFF7FEFF 		bl	prepareEastWestToDrive
 173:main.c        ****                 zustand++;
 491              		.loc 1 173 0
 492 0118 404B     		ldr	r3, .L41+32
 493 011a 1B68     		ldr	r3, [r3]
 494 011c 0133     		adds	r3, r3, #1
 495 011e 3F4A     		ldr	r2, .L41+32
 496 0120 1360     		str	r3, [r2]
 174:main.c        ****                 timer = 0;
 497              		.loc 1 174 0
 498 0122 3F4B     		ldr	r3, .L41+36
 499 0124 0022     		movs	r2, #0
 500 0126 1A60     		str	r2, [r3]
 501              	.L25:
 175:main.c        ****             }            
 176:main.c        ****             if(zustand == 6 && timer == 1) {
 502              		.loc 1 176 0
 503 0128 3C4B     		ldr	r3, .L41+32
 504 012a 1B68     		ldr	r3, [r3]
 505 012c 062B     		cmp	r3, #6
 506 012e 0DD1     		bne	.L26
 507              		.loc 1 176 0 is_stmt 0 discriminator 1
 508 0130 3B4B     		ldr	r3, .L41+36
 509 0132 1B68     		ldr	r3, [r3]
 510 0134 012B     		cmp	r3, #1
 511 0136 09D1     		bne	.L26
 177:main.c        ****                 allowEastWestToDrive();
 512              		.loc 1 177 0 is_stmt 1
 513 0138 FFF7FEFF 		bl	allowEastWestToDrive
 178:main.c        ****                 zustand++;
 514              		.loc 1 178 0
 515 013c 374B     		ldr	r3, .L41+32
 516 013e 1B68     		ldr	r3, [r3]
 517 0140 0133     		adds	r3, r3, #1
 518 0142 364A     		ldr	r2, .L41+32
 519 0144 1360     		str	r3, [r2]
 179:main.c        ****                 timer = 0;
 520              		.loc 1 179 0
 521 0146 364B     		ldr	r3, .L41+36
 522 0148 0022     		movs	r2, #0
 523 014a 1A60     		str	r2, [r3]
 524              	.L26:
 180:main.c        ****             }           
 181:main.c        ****             if(zustand == 7 && timer == 2) {
 525              		.loc 1 181 0
 526 014c 334B     		ldr	r3, .L41+32
 527 014e 1B68     		ldr	r3, [r3]
 528 0150 072B     		cmp	r3, #7
 529 0152 0BD1     		bne	.L19
 530              		.loc 1 181 0 is_stmt 0 discriminator 1
ARM GAS  C:\Users\thieu\AppData\Local\Temp\ccnAHIBf.s 			page 14


 531 0154 324B     		ldr	r3, .L41+36
 532 0156 1B68     		ldr	r3, [r3]
 533 0158 022B     		cmp	r3, #2
 534 015a 07D1     		bne	.L19
 182:main.c        ****                 prepareEastWestToStop();
 535              		.loc 1 182 0 is_stmt 1
 536 015c FFF7FEFF 		bl	prepareEastWestToStop
 183:main.c        ****                 zustand = 0;
 537              		.loc 1 183 0
 538 0160 2E4B     		ldr	r3, .L41+32
 539 0162 0022     		movs	r2, #0
 540 0164 1A60     		str	r2, [r3]
 184:main.c        ****                 timer = 0;
 541              		.loc 1 184 0
 542 0166 2E4B     		ldr	r3, .L41+36
 543 0168 0022     		movs	r2, #0
 544 016a 1A60     		str	r2, [r3]
 545              	.L19:
 185:main.c        ****             }
 186:main.c        ****         }
 187:main.c        **** //        /* Fußgänger-Anforderung Ampel */        
 188:main.c        **** //        // Behandlung Button-Ereignis aus ISR
 189:main.c        ****         if(fCWEW_Isr){
 546              		.loc 1 189 0
 547 016c 2D4B     		ldr	r3, .L41+40
 548 016e 1B78     		ldrb	r3, [r3]	@ zero_extendqisi2
 549 0170 002B     		cmp	r3, #0
 550 0172 34D0     		beq	.L27
 190:main.c        ****             // fast foward to turn on led Fuß ost-west
 191:main.c        ****             if (zustand == 0) { // alle rot -> direkt NORD-SÜD auf gelb -> state 2 wird aktiviert
 551              		.loc 1 191 0
 552 0174 294B     		ldr	r3, .L41+32
 553 0176 1B68     		ldr	r3, [r3]
 554 0178 002B     		cmp	r3, #0
 555 017a 07D1     		bne	.L28
 192:main.c        ****                 prepareNorthSouthToDrive();
 556              		.loc 1 192 0
 557 017c FFF7FEFF 		bl	prepareNorthSouthToDrive
 193:main.c        ****                 zustand = 2;
 558              		.loc 1 193 0
 559 0180 264B     		ldr	r3, .L41+32
 560 0182 0222     		movs	r2, #2
 561 0184 1A60     		str	r2, [r3]
 194:main.c        ****                 timer = 0;
 562              		.loc 1 194 0
 563 0186 264B     		ldr	r3, .L41+36
 564 0188 0022     		movs	r2, #0
 565 018a 1A60     		str	r2, [r3]
 566              	.L28:
 195:main.c        ****             }          
 196:main.c        ****             // led Fuß ost-west lasts longer
 197:main.c        ****             if (zustand == 3 && timer < 3) {
 567              		.loc 1 197 0
 568 018c 234B     		ldr	r3, .L41+32
 569 018e 1B68     		ldr	r3, [r3]
 570 0190 032B     		cmp	r3, #3
 571 0192 08D1     		bne	.L29
ARM GAS  C:\Users\thieu\AppData\Local\Temp\ccnAHIBf.s 			page 15


 572              		.loc 1 197 0 is_stmt 0 discriminator 1
 573 0194 224B     		ldr	r3, .L41+36
 574 0196 1B68     		ldr	r3, [r3]
 575 0198 022B     		cmp	r3, #2
 576 019a 04D8     		bhi	.L29
 198:main.c        ****                 timer = timer - 2;
 577              		.loc 1 198 0 is_stmt 1
 578 019c 204B     		ldr	r3, .L41+36
 579 019e 1B68     		ldr	r3, [r3]
 580 01a0 023B     		subs	r3, r3, #2
 581 01a2 1F4A     		ldr	r2, .L41+36
 582 01a4 1360     		str	r3, [r2]
 583              	.L29:
 199:main.c        ****             }            
 200:main.c        ****             // fast foward for led fuß nord - süd
 201:main.c        ****             if (zustand == 4) { // alle rot -> direkt OST-WEST auf gelb -> state 6 wird aktiviert
 584              		.loc 1 201 0
 585 01a6 1D4B     		ldr	r3, .L41+32
 586 01a8 1B68     		ldr	r3, [r3]
 587 01aa 042B     		cmp	r3, #4
 588 01ac 07D1     		bne	.L30
 202:main.c        ****                 prepareEastWestToDrive();
 589              		.loc 1 202 0
 590 01ae FFF7FEFF 		bl	prepareEastWestToDrive
 203:main.c        ****                 zustand = 6;
 591              		.loc 1 203 0
 592 01b2 1A4B     		ldr	r3, .L41+32
 593 01b4 0622     		movs	r2, #6
 594 01b6 1A60     		str	r2, [r3]
 204:main.c        ****                 timer = 0;
 595              		.loc 1 204 0
 596 01b8 194B     		ldr	r3, .L41+36
 597 01ba 0022     		movs	r2, #0
 598 01bc 1A60     		str	r2, [r3]
 599              	.L30:
 205:main.c        ****             }
 206:main.c        ****             // led Fuß nord - süd lasts longer
 207:main.c        ****             if (zustand == 7 && timer < 2) {
 600              		.loc 1 207 0
 601 01be 174B     		ldr	r3, .L41+32
 602 01c0 1B68     		ldr	r3, [r3]
 603 01c2 072B     		cmp	r3, #7
 604 01c4 08D1     		bne	.L31
 605              		.loc 1 207 0 is_stmt 0 discriminator 1
 606 01c6 164B     		ldr	r3, .L41+36
 607 01c8 1B68     		ldr	r3, [r3]
 608 01ca 012B     		cmp	r3, #1
 609 01cc 04D8     		bhi	.L31
 208:main.c        ****                 timer = timer - 2;
 610              		.loc 1 208 0 is_stmt 1
 611 01ce 144B     		ldr	r3, .L41+36
 612 01d0 1B68     		ldr	r3, [r3]
 613 01d2 023B     		subs	r3, r3, #2
 614 01d4 124A     		ldr	r2, .L41+36
 615 01d6 1360     		str	r3, [r2]
 616              	.L31:
 209:main.c        ****             }
ARM GAS  C:\Users\thieu\AppData\Local\Temp\ccnAHIBf.s 			page 16


 210:main.c        ****             fCWEW_Isr = 0; // Wieder auf Null!
 617              		.loc 1 210 0
 618 01d8 124B     		ldr	r3, .L41+40
 619 01da 0022     		movs	r2, #0
 620 01dc 1A70     		strb	r2, [r3]
 621              	.L27:
 211:main.c        ****         }
 212:main.c        **** 
 213:main.c        ****         /* 
 214:main.c        ****          * Character aus Uart ISR abfragen 
 215:main.c        ****          * Beispiel für Menuesteuerung
 216:main.c        ****          */
 217:main.c        ****         if ( cRx ) {
 622              		.loc 1 217 0
 623 01de 0D4B     		ldr	r3, .L41+24
 624 01e0 1B78     		ldrb	r3, [r3]	@ zero_extendqisi2
 625 01e2 002B     		cmp	r3, #0
 626 01e4 3FF42CAF 		beq	.L40
 627              	.LBB2:
 218:main.c        ****             char c = cRx;   // copy char
 628              		.loc 1 218 0
 629 01e8 0A4B     		ldr	r3, .L41+24
 630 01ea 1B78     		ldrb	r3, [r3]
 631 01ec FB71     		strb	r3, [r7, #7]
 219:main.c        ****             cRx = 0;        // nicht vergessen!!! Warum?
 632              		.loc 1 219 0
 633 01ee 094B     		ldr	r3, .L41+24
 634 01f0 0022     		movs	r2, #0
 635 01f2 1A70     		strb	r2, [r3]
 220:main.c        ****             // +++ Menuesteuerung +++
 221:main.c        ****             switch ( c ) {
 636              		.loc 1 221 0
 637 01f4 FB79     		ldrb	r3, [r7, #7]	@ zero_extendqisi2
 638 01f6 2B3B     		subs	r3, r3, #43
 639 01f8 16E0     		b	.L42
 640              	.L43:
 641 01fa 00BF     		.align	2
 642              	.L41:
 643 01fc 00000000 		.word	MyIsrUartRX
 644 0200 00000000 		.word	MyIsrCWEW
 645 0204 00000000 		.word	IsrAppClk
 646 0208 00000000 		.word	.LC0
 647 020c 70000000 		.word	.LC1
 648 0210 00000000 		.word	buffer
 649 0214 80000000 		.word	cRx
 650 0218 82000000 		.word	fsClock
 651 021c 8C000000 		.word	zustand
 652 0220 88000000 		.word	timer
 653 0224 81000000 		.word	fCWEW_Isr
 654              	.L42:
 655 0228 462B     		cmp	r3, #70
 656 022a 00F2B880 		bhi	.L33
 657 022e 01A2     		adr	r2, .L35
 658 0230 52F823F0 		ldr	pc, [r2, r3, lsl #2]
 659              		.p2align 2
 660              	.L35:
 661 0234 67030000 		.word	.L34+1
ARM GAS  C:\Users\thieu\AppData\Local\Temp\ccnAHIBf.s 			page 17


 662 0238 9F030000 		.word	.L33+1
 663 023c 83030000 		.word	.L36+1
 664 0240 9F030000 		.word	.L33+1
 665 0244 9F030000 		.word	.L33+1
 666 0248 9F030000 		.word	.L33+1
 667 024c 9F030000 		.word	.L33+1
 668 0250 9F030000 		.word	.L33+1
 669 0254 9F030000 		.word	.L33+1
 670 0258 9F030000 		.word	.L33+1
 671 025c 9F030000 		.word	.L33+1
 672 0260 9F030000 		.word	.L33+1
 673 0264 9F030000 		.word	.L33+1
 674 0268 9F030000 		.word	.L33+1
 675 026c 9F030000 		.word	.L33+1
 676 0270 9F030000 		.word	.L33+1
 677 0274 9F030000 		.word	.L33+1
 678 0278 9F030000 		.word	.L33+1
 679 027c 9F030000 		.word	.L33+1
 680 0280 9F030000 		.word	.L33+1
 681 0284 9F030000 		.word	.L33+1
 682 0288 9F030000 		.word	.L33+1
 683 028c 9F030000 		.word	.L33+1
 684 0290 9F030000 		.word	.L33+1
 685 0294 9F030000 		.word	.L33+1
 686 0298 9F030000 		.word	.L33+1
 687 029c 9F030000 		.word	.L33+1
 688 02a0 9F030000 		.word	.L33+1
 689 02a4 9F030000 		.word	.L33+1
 690 02a8 57030000 		.word	.L37+1
 691 02ac 9F030000 		.word	.L33+1
 692 02b0 9F030000 		.word	.L33+1
 693 02b4 9F030000 		.word	.L33+1
 694 02b8 9F030000 		.word	.L33+1
 695 02bc 9F030000 		.word	.L33+1
 696 02c0 9F030000 		.word	.L33+1
 697 02c4 9F030000 		.word	.L33+1
 698 02c8 9F030000 		.word	.L33+1
 699 02cc 51030000 		.word	.L38+1
 700 02d0 9F030000 		.word	.L33+1
 701 02d4 9F030000 		.word	.L33+1
 702 02d8 9F030000 		.word	.L33+1
 703 02dc 9F030000 		.word	.L33+1
 704 02e0 9F030000 		.word	.L33+1
 705 02e4 9F030000 		.word	.L33+1
 706 02e8 9F030000 		.word	.L33+1
 707 02ec 9F030000 		.word	.L33+1
 708 02f0 9F030000 		.word	.L33+1
 709 02f4 9F030000 		.word	.L33+1
 710 02f8 9F030000 		.word	.L33+1
 711 02fc 9F030000 		.word	.L33+1
 712 0300 9F030000 		.word	.L33+1
 713 0304 9F030000 		.word	.L33+1
 714 0308 9F030000 		.word	.L33+1
 715 030c 9F030000 		.word	.L33+1
 716 0310 9F030000 		.word	.L33+1
 717 0314 5F030000 		.word	.L39+1
 718 0318 9F030000 		.word	.L33+1
ARM GAS  C:\Users\thieu\AppData\Local\Temp\ccnAHIBf.s 			page 18


 719 031c 9F030000 		.word	.L33+1
 720 0320 9F030000 		.word	.L33+1
 721 0324 9F030000 		.word	.L33+1
 722 0328 57030000 		.word	.L37+1
 723 032c 9F030000 		.word	.L33+1
 724 0330 9F030000 		.word	.L33+1
 725 0334 9F030000 		.word	.L33+1
 726 0338 9F030000 		.word	.L33+1
 727 033c 9F030000 		.word	.L33+1
 728 0340 9F030000 		.word	.L33+1
 729 0344 9F030000 		.word	.L33+1
 730 0348 9F030000 		.word	.L33+1
 731 034c 51030000 		.word	.L38+1
 732              		.p2align 1
 733              	.L38:
 222:main.c        ****                 // Software reset, startet Programm neu
 223:main.c        ****                 case 'q':
 224:main.c        ****                 case 'Q':   // fallthrough
 225:main.c        ****                     CySoftwareReset();
 734              		.loc 1 225 0
 735 0350 FFF7FEFF 		bl	CySoftwareReset
 226:main.c        ****                     break;
 736              		.loc 1 226 0
 737 0354 28E0     		b	.L32
 738              	.L37:
 227:main.c        ****                 case 'h':   // help
 228:main.c        ****                 case 'H':   // fallthrough
 229:main.c        ****                     UART_PutString( "\n\rHelp:\n\r\
 739              		.loc 1 229 0
 740 0356 1548     		ldr	r0, .L44
 741 0358 FFF7FEFF 		bl	UART_PutString
 230:main.c        **** \th,H: help\n\r\
 231:main.c        **** \tc: clear screen\n\r\
 232:main.c        **** \tq,Q: software reset\n\r" );
 233:main.c        ****                     break;
 742              		.loc 1 233 0
 743 035c 24E0     		b	.L32
 744              	.L39:
 234:main.c        ****                     
 235:main.c        ****                 /* VT100 Steuerzeichen: clear screen (nicht verlangt, lediglich ein Test!) */
 236:main.c        ****                 case 'c':   // clear screen, see https://stackoverflow.com/questions/37774983/clear
 237:main.c        ****                     UART_PutString( "\033[2J\033[H" ); // clear screen \033[2J, 
 745              		.loc 1 237 0
 746 035e 1448     		ldr	r0, .L44+4
 747 0360 FFF7FEFF 		bl	UART_PutString
 238:main.c        ****                                                        // home position \033[H
 239:main.c        ****                     break;
 748              		.loc 1 239 0
 749 0364 20E0     		b	.L32
 750              	.L34:
 240:main.c        ****                     
 241:main.c        ****                 case '+':   
 242:main.c        ****                     sprintf(buffer, "brightness: %d \n", brightness);
 751              		.loc 1 242 0
 752 0366 134B     		ldr	r3, .L44+8
 753 0368 1B88     		ldrh	r3, [r3]
 754 036a 1A46     		mov	r2, r3
ARM GAS  C:\Users\thieu\AppData\Local\Temp\ccnAHIBf.s 			page 19


 755 036c 1249     		ldr	r1, .L44+12
 756 036e 1348     		ldr	r0, .L44+16
 757 0370 FFF7FEFF 		bl	sprintf
 243:main.c        ****                     UART_PutString(buffer);
 758              		.loc 1 243 0
 759 0374 1148     		ldr	r0, .L44+16
 760 0376 FFF7FEFF 		bl	UART_PutString
 244:main.c        ****                     brightness_settings(0);
 761              		.loc 1 244 0
 762 037a 0020     		movs	r0, #0
 763 037c FFF7FEFF 		bl	brightness_settings
 245:main.c        ****                     break;
 764              		.loc 1 245 0
 765 0380 12E0     		b	.L32
 766              	.L36:
 246:main.c        ****                 case '-': 
 247:main.c        ****                     sprintf(buffer, "brightness: %d \n", brightness);
 767              		.loc 1 247 0
 768 0382 0C4B     		ldr	r3, .L44+8
 769 0384 1B88     		ldrh	r3, [r3]
 770 0386 1A46     		mov	r2, r3
 771 0388 0B49     		ldr	r1, .L44+12
 772 038a 0C48     		ldr	r0, .L44+16
 773 038c FFF7FEFF 		bl	sprintf
 248:main.c        ****                     UART_PutString(buffer);
 774              		.loc 1 248 0
 775 0390 0A48     		ldr	r0, .L44+16
 776 0392 FFF7FEFF 		bl	UART_PutString
 249:main.c        ****                     brightness_settings(1);
 777              		.loc 1 249 0
 778 0396 0120     		movs	r0, #1
 779 0398 FFF7FEFF 		bl	brightness_settings
 250:main.c        ****                     break;
 780              		.loc 1 250 0
 781 039c 04E0     		b	.L32
 782              	.L33:
 251:main.c        **** 
 252:main.c        ****                     // ... und so weiter ...
 253:main.c        ****                 default:
 254:main.c        ****                     UART_PutChar( c );    // Buchstabe auf Bildschirm ausgeben
 783              		.loc 1 254 0
 784 039e FB79     		ldrb	r3, [r7, #7]	@ zero_extendqisi2
 785 03a0 1846     		mov	r0, r3
 786 03a2 FFF7FEFF 		bl	UART_PutChar
 255:main.c        ****                     break;
 787              		.loc 1 255 0
 788 03a6 00BF     		nop
 789              	.L32:
 790              	.LBE2:
 256:main.c        ****             }  // end switch          
 257:main.c        ****         } // end if cRx
 258:main.c        ****                         
 259:main.c        ****     } // end for
 791              		.loc 1 259 0
 792 03a8 4AE6     		b	.L40
 793              	.L45:
 794 03aa 00BF     		.align	2
ARM GAS  C:\Users\thieu\AppData\Local\Temp\ccnAHIBf.s 			page 20


 795              	.L44:
 796 03ac 80000000 		.word	.LC2
 797 03b0 C0000000 		.word	.LC3
 798 03b4 00000000 		.word	brightness
 799 03b8 C8000000 		.word	.LC4
 800 03bc 00000000 		.word	buffer
 801              		.cfi_endproc
 802              	.LFE68:
 803              		.size	main, .-main
 804              		.text
 805              	.Letext0:
 806              		.file 2 "e:\\psoc creator\\psoc creator\\4.4\\psoc creator\\import\\gnu\\arm\\5.4.1\\arm-none-eabi
 807              		.file 3 "e:\\psoc creator\\psoc creator\\4.4\\psoc creator\\import\\gnu\\arm\\5.4.1\\arm-none-eabi
 808              		.file 4 "Generated_Source\\PSoC5/cytypes.h"
 809              		.file 5 "e:\\psoc creator\\psoc creator\\4.4\\psoc creator\\import\\gnu\\arm\\5.4.1\\arm-none-eabi
 810              		.file 6 "Generated_Source\\PSoC5/core_cm3.h"