ARM GAS  C:\Users\dmaks\AppData\Local\Temp\ccv7w8Sz.s 			page 1


   1              		.syntax unified
   2              		.cpu cortex-m3
   3              		.fpu softvfp
   4              		.eabi_attribute 20, 1
   5              		.eabi_attribute 21, 1
   6              		.eabi_attribute 23, 3
   7              		.eabi_attribute 24, 1
   8              		.eabi_attribute 25, 1
   9              		.eabi_attribute 26, 1
  10              		.eabi_attribute 30, 6
  11              		.eabi_attribute 34, 1
  12              		.eabi_attribute 18, 4
  13              		.thumb
  14              		.syntax unified
  15              		.file	"main.c"
  16              		.text
  17              	.Ltext0:
  18              		.cfi_sections	.debug_frame
  19              		.bss
  20              		.align	2
  21              	buffer:
  22 0000 00000000 		.space	128
  22      00000000 
  22      00000000 
  22      00000000 
  22      00000000 
  23              	cRx:
  24 0080 00       		.space	1
  25              		.section	.text.MyIsrUartRX,"ax",%progbits
  26              		.align	2
  27              		.global	MyIsrUartRX
  28              		.thumb
  29              		.thumb_func
  30              		.type	MyIsrUartRX, %function
  31              	MyIsrUartRX:
  32              	.LFB64:
  33              		.file 1 "main.c"
   1:main.c        **** /* ========================================
   2:main.c        ****  *
   3:main.c        ****  * Copyright R. Mayer, h_da, FbI, 
   4:main.c        ****  * All Rights Reserved
   5:main.c        ****  * UNPUBLISHED, LICENSED SOFTWARE.
   6:main.c        ****  *
   7:main.c        ****  * CONFIDENTIAL AND PROPRIETARY INFORMATION
   8:main.c        ****  * WHICH IS THE PROPERTY OF your company.
   9:main.c        ****  *
  10:main.c        ****  * ========================================
  11:main.c        ****  */
  12:main.c        **** #include "project.h"
  13:main.c        **** #include "HAL.h"
  14:main.c        **** #include <stdio.h>          // für string-Operationen wie sprintf
  15:main.c        **** /*
  16:main.c        ****  * Diese Definitionen ermöglichen es, 
  17:main.c        ****  * einfach Informationen auf den Bildschirm zu schreiben
  18:main.c        ****  */
  19:main.c        **** #define _VERSION_NR     "ver. 1.1"              //!< Version number. Please update
  20:main.c        **** #define _PROJECT_NAME   "MPS21_Prakt_3"         //!< Project name
ARM GAS  C:\Users\dmaks\AppData\Local\Temp\ccv7w8Sz.s 			page 2


  21:main.c        **** #define _PROCESSOR      "PSoC 5LP"              //!< Processor type
  22:main.c        **** #define _DEVICE_NAME    "FreeSoC2"              //!< Board or device type
  23:main.c        **** #define _AUTHOR_        "Jamil Boujada, Damir Maksuti"
  24:main.c        **** #define _COMPANY        "Template MPS 3"
  25:main.c        **** 
  26:main.c        **** // String für die Anzeige zusammenbauen
  27:main.c        **** #define _VERSTR_       (_PROJECT_NAME", "_DEVICE_NAME", "_PROCESSOR", "_VERSION_NR"\n\r"\
  28:main.c        **** _AUTHOR_" ("_COMPANY"), "__DATE__" "__TIME__)
  29:main.c        **** /* 
  30:main.c        ****  * String Buffer für Anzeige am Bildschirm anlegen.
  31:main.c        ****  * Auf die maximale Größe achten!
  32:main.c        ****  */
  33:main.c        **** #define BUFFER_SIZE 128             //!< string output buffer size for sprintf
  34:main.c        **** static char buffer[BUFFER_SIZE];    //!< buffer (global) for sprintf
  35:main.c        **** static char cRx = 0;                //!< character from UART, visible within main.c
  36:main.c        **** /** 
  37:main.c        ****  * UART RX interrupt service routine.
  38:main.c        ****  *
  39:main.c        ****  * Collect a characters from UART into a global input variable.
  40:main.c        ****  * @see cRx
  41:main.c        ****  */
  42:main.c        **** CY_ISR( MyIsrUartRX ) {
  34              		.loc 1 42 0
  35              		.cfi_startproc
  36              		@ args = 0, pretend = 0, frame = 0
  37              		@ frame_needed = 1, uses_anonymous_args = 0
  38 0000 80B5     		push	{r7, lr}
  39              		.cfi_def_cfa_offset 8
  40              		.cfi_offset 7, -8
  41              		.cfi_offset 14, -4
  42 0002 00AF     		add	r7, sp, #0
  43              		.cfi_def_cfa_register 7
  43:main.c        ****     cRx = UART_GetChar();       // read and copy char
  44              		.loc 1 43 0
  45 0004 FFF7FEFF 		bl	UART_GetChar
  46 0008 0346     		mov	r3, r0
  47 000a 1A46     		mov	r2, r3
  48 000c 014B     		ldr	r3, .L2
  49 000e 1A70     		strb	r2, [r3]
  44:main.c        **** //    UART_PutChar(cRx);
  45:main.c        **** }
  50              		.loc 1 45 0
  51 0010 00BF     		nop
  52 0012 80BD     		pop	{r7, pc}
  53              	.L3:
  54              		.align	2
  55              	.L2:
  56 0014 80000000 		.word	cRx
  57              		.cfi_endproc
  58              	.LFE64:
  59              		.size	MyIsrUartRX, .-MyIsrUartRX
  60              		.bss
  61              	fCWEW_Isr:
  62 0081 00       		.space	1
  63              		.section	.text.MyIsrCWEW,"ax",%progbits
  64              		.align	2
  65              		.global	MyIsrCWEW
ARM GAS  C:\Users\dmaks\AppData\Local\Temp\ccv7w8Sz.s 			page 3


  66              		.thumb
  67              		.thumb_func
  68              		.type	MyIsrCWEW, %function
  69              	MyIsrCWEW:
  70              	.LFB65:
  46:main.c        **** static uint8_t fCWEW_Isr = 0;   //!< flag CW EW button isr, visible within main.c
  47:main.c        **** /** 
  48:main.c        ****  * Interrupt isr_CWSN for button Pin_CWSN interrupt service routine.
  49:main.c        ****  *
  50:main.c        ****  * @see fCWEW_Isr
  51:main.c        ****  */
  52:main.c        **** CY_ISR( MyIsrCWEW ) {
  71              		.loc 1 52 0
  72              		.cfi_startproc
  73              		@ args = 0, pretend = 0, frame = 0
  74              		@ frame_needed = 1, uses_anonymous_args = 0
  75 0000 80B5     		push	{r7, lr}
  76              		.cfi_def_cfa_offset 8
  77              		.cfi_offset 7, -8
  78              		.cfi_offset 14, -4
  79 0002 00AF     		add	r7, sp, #0
  80              		.cfi_def_cfa_register 7
  53:main.c        ****     /* Clear Interrupt first ! */
  54:main.c        ****     Pin_CWEW_ClearInterrupt();
  81              		.loc 1 54 0
  82 0004 FFF7FEFF 		bl	Pin_CWEW_ClearInterrupt
  55:main.c        ****     fCWEW_Isr = 1;              // set flag
  83              		.loc 1 55 0
  84 0008 024B     		ldr	r3, .L5
  85 000a 0122     		movs	r2, #1
  86 000c 1A70     		strb	r2, [r3]
  56:main.c        **** }
  87              		.loc 1 56 0
  88 000e 00BF     		nop
  89 0010 80BD     		pop	{r7, pc}
  90              	.L6:
  91 0012 00BF     		.align	2
  92              	.L5:
  93 0014 81000000 		.word	fCWEW_Isr
  94              		.cfi_endproc
  95              	.LFE65:
  96              		.size	MyIsrCWEW, .-MyIsrCWEW
  97              		.bss
  98 0082 0000     		.align	2
  99              	ms:
 100 0084 00000000 		.space	4
 101              	fsClock:
 102 0088 00       		.space	1
 103 0089 000000   		.align	2
 104              	timer:
 105 008c 00000000 		.space	4
 106              		.data
 107              		.align	1
 108              		.type	brightness, %object
 109              		.size	brightness, 2
 110              	brightness:
 111 0000 6400     		.short	100
ARM GAS  C:\Users\dmaks\AppData\Local\Temp\ccv7w8Sz.s 			page 4


 112              		.section	.text.IsrAppClk,"ax",%progbits
 113              		.align	2
 114              		.global	IsrAppClk
 115              		.thumb
 116              		.thumb_func
 117              		.type	IsrAppClk, %function
 118              	IsrAppClk:
 119              	.LFB66:
  57:main.c        **** static uint32_t ms = 0;         //!< microseconds
  58:main.c        **** static uint8_t  fsClock = 0;    //!< s flag
  59:main.c        **** static uint32_t timer = 0;      //Aufgabe 2c
  60:main.c        **** static uint16 brightness = 100;
  61:main.c        **** /** 
  62:main.c        ****  * Application clock interrupt service routine for isr_Clk
  63:main.c        ****  *
  64:main.c        ****  * @see fClock
  65:main.c        ****  */
  66:main.c        **** CY_ISR( IsrAppClk ) {
 120              		.loc 1 66 0
 121              		.cfi_startproc
 122              		@ args = 0, pretend = 0, frame = 0
 123              		@ frame_needed = 1, uses_anonymous_args = 0
 124              		@ link register save eliminated.
 125 0000 80B4     		push	{r7}
 126              		.cfi_def_cfa_offset 4
 127              		.cfi_offset 7, -4
 128 0002 00AF     		add	r7, sp, #0
 129              		.cfi_def_cfa_register 7
  67:main.c        ****     // TODO: implementieren
  68:main.c        ****     ms++;                     // increment ms timestamp
 130              		.loc 1 68 0
 131 0004 0E4B     		ldr	r3, .L10
 132 0006 1B68     		ldr	r3, [r3]
 133 0008 0133     		adds	r3, r3, #1
 134 000a 0D4A     		ldr	r2, .L10
 135 000c 1360     		str	r3, [r2]
  69:main.c        ****     if ((ms % 1000) == 0 ) {  // next 1 s reached
 136              		.loc 1 69 0
 137 000e 0C4B     		ldr	r3, .L10
 138 0010 1A68     		ldr	r2, [r3]
 139 0012 0C4B     		ldr	r3, .L10+4
 140 0014 A3FB0213 		umull	r1, r3, r3, r2
 141 0018 9B09     		lsrs	r3, r3, #6
 142 001a 4FF47A71 		mov	r1, #1000
 143 001e 01FB03F3 		mul	r3, r1, r3
 144 0022 D31A     		subs	r3, r2, r3
 145 0024 002B     		cmp	r3, #0
 146 0026 07D1     		bne	.L9
  70:main.c        ****        fsClock = 1;                 // set flag 
 147              		.loc 1 70 0
 148 0028 074B     		ldr	r3, .L10+8
 149 002a 0122     		movs	r2, #1
 150 002c 1A70     		strb	r2, [r3]
  71:main.c        ****        timer++;                     //Aufgabe 2c
 151              		.loc 1 71 0
 152 002e 074B     		ldr	r3, .L10+12
 153 0030 1B68     		ldr	r3, [r3]
ARM GAS  C:\Users\dmaks\AppData\Local\Temp\ccv7w8Sz.s 			page 5


 154 0032 0133     		adds	r3, r3, #1
 155 0034 054A     		ldr	r2, .L10+12
 156 0036 1360     		str	r3, [r2]
 157              	.L9:
  72:main.c        ****     }    
  73:main.c        **** }
 158              		.loc 1 73 0
 159 0038 00BF     		nop
 160 003a BD46     		mov	sp, r7
 161              		.cfi_def_cfa_register 13
 162              		@ sp needed
 163 003c 80BC     		pop	{r7}
 164              		.cfi_restore 7
 165              		.cfi_def_cfa_offset 0
 166 003e 7047     		bx	lr
 167              	.L11:
 168              		.align	2
 169              	.L10:
 170 0040 84000000 		.word	ms
 171 0044 D34D6210 		.word	274877907
 172 0048 88000000 		.word	fsClock
 173 004c 8C000000 		.word	timer
 174              		.cfi_endproc
 175              	.LFE66:
 176              		.size	IsrAppClk, .-IsrAppClk
 177              		.section	.text.brightness_settings,"ax",%progbits
 178              		.align	2
 179              		.global	brightness_settings
 180              		.thumb
 181              		.thumb_func
 182              		.type	brightness_settings, %function
 183              	brightness_settings:
 184              	.LFB67:
  74:main.c        **** void brightness_settings(u_int input){
 185              		.loc 1 74 0
 186              		.cfi_startproc
 187              		@ args = 0, pretend = 0, frame = 16
 188              		@ frame_needed = 1, uses_anonymous_args = 0
 189 0000 80B5     		push	{r7, lr}
 190              		.cfi_def_cfa_offset 8
 191              		.cfi_offset 7, -8
 192              		.cfi_offset 14, -4
 193 0002 84B0     		sub	sp, sp, #16
 194              		.cfi_def_cfa_offset 24
 195 0004 00AF     		add	r7, sp, #0
 196              		.cfi_def_cfa_register 7
 197 0006 7860     		str	r0, [r7, #4]
  75:main.c        ****     if(input && brightness < 1000){
 198              		.loc 1 75 0
 199 0008 7B68     		ldr	r3, [r7, #4]
 200 000a 002B     		cmp	r3, #0
 201 000c 15D0     		beq	.L13
 202              		.loc 1 75 0 is_stmt 0 discriminator 1
 203 000e 154B     		ldr	r3, .L16
 204 0010 1B88     		ldrh	r3, [r3]
 205 0012 B3F57A7F 		cmp	r3, #1000
 206 0016 10D2     		bcs	.L13
ARM GAS  C:\Users\dmaks\AppData\Local\Temp\ccv7w8Sz.s 			page 6


 207              	.LBB2:
  76:main.c        ****         uint16 test = PWM_ReadCompare();
 208              		.loc 1 76 0 is_stmt 1
 209 0018 FFF7FEFF 		bl	PWM_ReadCompare
 210 001c 0346     		mov	r3, r0
 211 001e FB81     		strh	r3, [r7, #14]	@ movhi
  77:main.c        ****         brightness = brightness + 100;
 212              		.loc 1 77 0
 213 0020 104B     		ldr	r3, .L16
 214 0022 1B88     		ldrh	r3, [r3]
 215 0024 6433     		adds	r3, r3, #100
 216 0026 9AB2     		uxth	r2, r3
 217 0028 0E4B     		ldr	r3, .L16
 218 002a 1A80     		strh	r2, [r3]	@ movhi
  78:main.c        ****         PWM_WriteCompare( brightness);
 219              		.loc 1 78 0
 220 002c 0D4B     		ldr	r3, .L16
 221 002e 1B88     		ldrh	r3, [r3]
 222 0030 1846     		mov	r0, r3
 223 0032 FFF7FEFF 		bl	PWM_WriteCompare
 224              	.LBE2:
  75:main.c        ****         uint16 test = PWM_ReadCompare();
 225              		.loc 1 75 0
 226 0036 00BF     		nop
  79:main.c        ****         
  80:main.c        ****     }else if( brightness != 0){
  81:main.c        ****         brightness = brightness - 100;
  82:main.c        ****         PWM_WriteCompare(brightness - 100);
  83:main.c        ****     }
  84:main.c        **** }
 227              		.loc 1 84 0
 228 0038 10E0     		b	.L15
 229              	.L13:
  80:main.c        ****         brightness = brightness - 100;
 230              		.loc 1 80 0
 231 003a 0A4B     		ldr	r3, .L16
 232 003c 1B88     		ldrh	r3, [r3]
 233 003e 002B     		cmp	r3, #0
 234 0040 0CD0     		beq	.L15
  81:main.c        ****         PWM_WriteCompare(brightness - 100);
 235              		.loc 1 81 0
 236 0042 084B     		ldr	r3, .L16
 237 0044 1B88     		ldrh	r3, [r3]
 238 0046 643B     		subs	r3, r3, #100
 239 0048 9AB2     		uxth	r2, r3
 240 004a 064B     		ldr	r3, .L16
 241 004c 1A80     		strh	r2, [r3]	@ movhi
  82:main.c        ****     }
 242              		.loc 1 82 0
 243 004e 054B     		ldr	r3, .L16
 244 0050 1B88     		ldrh	r3, [r3]
 245 0052 643B     		subs	r3, r3, #100
 246 0054 9BB2     		uxth	r3, r3
 247 0056 1846     		mov	r0, r3
 248 0058 FFF7FEFF 		bl	PWM_WriteCompare
 249              	.L15:
 250              		.loc 1 84 0
ARM GAS  C:\Users\dmaks\AppData\Local\Temp\ccv7w8Sz.s 			page 7


 251 005c 00BF     		nop
 252 005e 1037     		adds	r7, r7, #16
 253              		.cfi_def_cfa_offset 8
 254 0060 BD46     		mov	sp, r7
 255              		.cfi_def_cfa_register 13
 256              		@ sp needed
 257 0062 80BD     		pop	{r7, pc}
 258              	.L17:
 259              		.align	2
 260              	.L16:
 261 0064 00000000 		.word	brightness
 262              		.cfi_endproc
 263              	.LFE67:
 264              		.size	brightness_settings, .-brightness_settings
 265              		.section	.rodata
 266              		.align	2
 267              	.LC0:
 268 0000 4D505332 		.ascii	"MPS21_Prakt_3, FreeSoC2, PSoC 5LP, ver. 1.1\012\015"
 268      315F5072 
 268      616B745F 
 268      332C2046 
 268      72656553 
 269 002d 4A616D69 		.ascii	"Jamil Boujada, Damir Maksuti (Template MPS 3), Jun "
 269      6C20426F 
 269      756A6164 
 269      612C2044 
 269      616D6972 
 270 0060 32302032 		.ascii	"20 2022 11:29:55\000"
 270      30323220 
 270      31313A32 
 270      393A3535 
 270      00
 271 0071 000000   		.align	2
 272              	.LC1:
 273 0074 0A0D5765 		.ascii	"\012\015Welcome! %s\012\015\000"
 273      6C636F6D 
 273      65212025 
 273      730A0D00 
 274              		.align	2
 275              	.LC2:
 276 0084 48616E64 		.ascii	"Handle Keyboard %c\012\015\000"
 276      6C65204B 
 276      6579626F 
 276      61726420 
 276      25630A0D 
 277 0099 000000   		.align	2
 278              	.LC3:
 279 009c 0A0D4865 		.ascii	"\012\015Help:\012\015\\th,H: help\012\015\\tq,Q: so"
 279      6C703A0A 
 279      0D5C7468 
 279      2C483A20 
 279      68656C70 
 280 00bb 66747761 		.ascii	"ftware reset\012\015\000"
 280      72652072 
 280      65736574 
 280      0A0D00
 281              		.section	.text.main,"ax",%progbits
ARM GAS  C:\Users\dmaks\AppData\Local\Temp\ccv7w8Sz.s 			page 8


 282              		.align	2
 283              		.global	main
 284              		.thumb
 285              		.thumb_func
 286              		.type	main, %function
 287              	main:
 288              	.LFB68:
  85:main.c        **** /**
  86:main.c        ****  * Basisprojekt mit UART mit Interrupt, User Button mit Interrupt und Statusabfrage. 
  87:main.c        ****  * Pin-I/O Einfache Eingabe mit Button, Ausgabe mit LED
  88:main.c        ****  * für FreeSoC2
  89:main.c        ****  * 
  90:main.c        ****  * @author Ralf S. Mayer
  91:main.c        ****  * @date 2021-11-28
  92:main.c        ****  * @version 1.0
  93:main.c        ****  */
  94:main.c        **** int main(void) {   
 289              		.loc 1 94 0
 290              		.cfi_startproc
 291              		@ args = 0, pretend = 0, frame = 8
 292              		@ frame_needed = 1, uses_anonymous_args = 0
 293 0000 80B5     		push	{r7, lr}
 294              		.cfi_def_cfa_offset 8
 295              		.cfi_offset 7, -8
 296              		.cfi_offset 14, -4
 297 0002 82B0     		sub	sp, sp, #8
 298              		.cfi_def_cfa_offset 16
 299 0004 00AF     		add	r7, sp, #0
 300              		.cfi_def_cfa_register 7
  95:main.c        ****     /* Initialize and start UART, register ISR */
  96:main.c        ****     UART_Start();                       // start UART
 301              		.loc 1 96 0
 302 0006 FFF7FEFF 		bl	UART_Start
  97:main.c        ****     isr_UART_RX_StartEx( MyIsrUartRX ); // register ISR, enable itr uart
 303              		.loc 1 97 0
 304 000a 8548     		ldr	r0, .L40
 305 000c FFF7FEFF 		bl	isr_UART_RX_StartEx
  98:main.c        ****     
  99:main.c        ****     /* Initialize PWM */
 100:main.c        ****     PWM_Start();                        // start PWM
 306              		.loc 1 100 0
 307 0010 FFF7FEFF 		bl	PWM_Start
 101:main.c        **** 
 102:main.c        ****     /* Initialize and start MyIsrCWEW, register ISR */
 103:main.c        ****     isr_CWEW_StartEx( MyIsrCWEW );      // register CWEW itr
 308              		.loc 1 103 0
 309 0014 8348     		ldr	r0, .L40+4
 310 0016 FFF7FEFF 		bl	isr_CWEW_StartEx
 104:main.c        ****     Pin_CWEW_ClearInterrupt();          // clear eventual interrupt
 311              		.loc 1 104 0
 312 001a FFF7FEFF 		bl	Pin_CWEW_ClearInterrupt
 105:main.c        ****     isr_CWEW_ClearPending();            // clear eventual pending interrupt    
 313              		.loc 1 105 0
 314 001e FFF7FEFF 		bl	isr_CWEW_ClearPending
 106:main.c        ****     isr_Clk_StartEx( IsrAppClk );       // register application clock
 315              		.loc 1 106 0
 316 0022 8148     		ldr	r0, .L40+8
ARM GAS  C:\Users\dmaks\AppData\Local\Temp\ccv7w8Sz.s 			page 9


 317 0024 FFF7FEFF 		bl	isr_Clk_StartEx
 107:main.c        ****     
 108:main.c        ****     CyGlobalIntEnable; /* Enable global interrupts. */
 318              		.loc 1 108 0
 319              		.syntax unified
 320              	@ 108 "main.c" 1
 321 0028 62B6     		CPSIE   i
 322              	@ 0 "" 2
 109:main.c        **** 
 110:main.c        ****     /* Welcome and info text Ausgabe */
 111:main.c        ****     sprintf( buffer, "\n\rWelcome! %s\n\r", _VERSTR_);  // formatiert in Buffer
 323              		.loc 1 111 0
 324              		.thumb
 325              		.syntax unified
 326 002a 804A     		ldr	r2, .L40+12
 327 002c 8049     		ldr	r1, .L40+16
 328 002e 8148     		ldr	r0, .L40+20
 329 0030 FFF7FEFF 		bl	sprintf
 112:main.c        ****     UART_PutString( buffer );                           // Ausgabe auf UART
 330              		.loc 1 112 0
 331 0034 7F48     		ldr	r0, .L40+20
 332 0036 FFF7FEFF 		bl	UART_PutString
 113:main.c        ****     
 114:main.c        ****     // Applikationsschleife
 115:main.c        ****     int zustand = 0;
 333              		.loc 1 115 0
 334 003a 0023     		movs	r3, #0
 335 003c 7B60     		str	r3, [r7, #4]
 336              	.L39:
 116:main.c        ****     for(;;) {
 117:main.c        ****         cRx = UART_GetChar();
 337              		.loc 1 117 0
 338 003e FFF7FEFF 		bl	UART_GetChar
 339 0042 0346     		mov	r3, r0
 340 0044 1A46     		mov	r2, r3
 341 0046 7C4B     		ldr	r3, .L40+24
 342 0048 1A70     		strb	r2, [r3]
 118:main.c        ****         if ( fsClock ) {
 343              		.loc 1 118 0
 344 004a 7C4B     		ldr	r3, .L40+28
 345 004c 1B78     		ldrb	r3, [r3]	@ zero_extendqisi2
 346 004e 002B     		cmp	r3, #0
 347 0050 79D0     		beq	.L19
 119:main.c        ****             fsClock = 0;    // don't forget
 348              		.loc 1 119 0
 349 0052 7A4B     		ldr	r3, .L40+28
 350 0054 0022     		movs	r2, #0
 351 0056 1A70     		strb	r2, [r3]
 120:main.c        ****             
 121:main.c        ****             if(zustand == 0 && timer == 1) {
 352              		.loc 1 121 0
 353 0058 7B68     		ldr	r3, [r7, #4]
 354 005a 002B     		cmp	r3, #0
 355 005c 0BD1     		bne	.L20
 356              		.loc 1 121 0 is_stmt 0 discriminator 1
 357 005e 784B     		ldr	r3, .L40+32
 358 0060 1B68     		ldr	r3, [r3]
ARM GAS  C:\Users\dmaks\AppData\Local\Temp\ccv7w8Sz.s 			page 10


 359 0062 012B     		cmp	r3, #1
 360 0064 07D1     		bne	.L20
 122:main.c        ****                 cleanState(); // Alle rot
 361              		.loc 1 122 0 is_stmt 1
 362 0066 FFF7FEFF 		bl	cleanState
 123:main.c        ****                 zustand++;
 363              		.loc 1 123 0
 364 006a 7B68     		ldr	r3, [r7, #4]
 365 006c 0133     		adds	r3, r3, #1
 366 006e 7B60     		str	r3, [r7, #4]
 124:main.c        ****                 timer = 0;
 367              		.loc 1 124 0
 368 0070 734B     		ldr	r3, .L40+32
 369 0072 0022     		movs	r2, #0
 370 0074 1A60     		str	r2, [r3]
 371              	.L20:
 125:main.c        ****             }           
 126:main.c        ****             if(zustand == 1 && timer == 1) {               
 372              		.loc 1 126 0
 373 0076 7B68     		ldr	r3, [r7, #4]
 374 0078 012B     		cmp	r3, #1
 375 007a 0BD1     		bne	.L21
 376              		.loc 1 126 0 is_stmt 0 discriminator 1
 377 007c 704B     		ldr	r3, .L40+32
 378 007e 1B68     		ldr	r3, [r3]
 379 0080 012B     		cmp	r3, #1
 380 0082 07D1     		bne	.L21
 127:main.c        ****                 prepareNorthSouthToDrive();
 381              		.loc 1 127 0 is_stmt 1
 382 0084 FFF7FEFF 		bl	prepareNorthSouthToDrive
 128:main.c        ****                 zustand++;
 383              		.loc 1 128 0
 384 0088 7B68     		ldr	r3, [r7, #4]
 385 008a 0133     		adds	r3, r3, #1
 386 008c 7B60     		str	r3, [r7, #4]
 129:main.c        ****                 timer = 0;               
 387              		.loc 1 129 0
 388 008e 6C4B     		ldr	r3, .L40+32
 389 0090 0022     		movs	r2, #0
 390 0092 1A60     		str	r2, [r3]
 391              	.L21:
 130:main.c        ****             }            
 131:main.c        ****             if(zustand == 2 && timer == 1) {
 392              		.loc 1 131 0
 393 0094 7B68     		ldr	r3, [r7, #4]
 394 0096 022B     		cmp	r3, #2
 395 0098 0BD1     		bne	.L22
 396              		.loc 1 131 0 is_stmt 0 discriminator 1
 397 009a 694B     		ldr	r3, .L40+32
 398 009c 1B68     		ldr	r3, [r3]
 399 009e 012B     		cmp	r3, #1
 400 00a0 07D1     		bne	.L22
 132:main.c        ****                 allowNorthSouthToDrive();
 401              		.loc 1 132 0 is_stmt 1
 402 00a2 FFF7FEFF 		bl	allowNorthSouthToDrive
 133:main.c        ****                 zustand++;
 403              		.loc 1 133 0
ARM GAS  C:\Users\dmaks\AppData\Local\Temp\ccv7w8Sz.s 			page 11


 404 00a6 7B68     		ldr	r3, [r7, #4]
 405 00a8 0133     		adds	r3, r3, #1
 406 00aa 7B60     		str	r3, [r7, #4]
 134:main.c        ****                 timer = 0;
 407              		.loc 1 134 0
 408 00ac 644B     		ldr	r3, .L40+32
 409 00ae 0022     		movs	r2, #0
 410 00b0 1A60     		str	r2, [r3]
 411              	.L22:
 135:main.c        ****             }            
 136:main.c        ****             if(zustand == 3 && timer == 3) {
 412              		.loc 1 136 0
 413 00b2 7B68     		ldr	r3, [r7, #4]
 414 00b4 032B     		cmp	r3, #3
 415 00b6 0BD1     		bne	.L23
 416              		.loc 1 136 0 is_stmt 0 discriminator 1
 417 00b8 614B     		ldr	r3, .L40+32
 418 00ba 1B68     		ldr	r3, [r3]
 419 00bc 032B     		cmp	r3, #3
 420 00be 07D1     		bne	.L23
 137:main.c        ****                 prepareNorthSouthToStop();
 421              		.loc 1 137 0 is_stmt 1
 422 00c0 FFF7FEFF 		bl	prepareNorthSouthToStop
 138:main.c        ****                 zustand++;
 423              		.loc 1 138 0
 424 00c4 7B68     		ldr	r3, [r7, #4]
 425 00c6 0133     		adds	r3, r3, #1
 426 00c8 7B60     		str	r3, [r7, #4]
 139:main.c        ****                 timer = 0;
 427              		.loc 1 139 0
 428 00ca 5D4B     		ldr	r3, .L40+32
 429 00cc 0022     		movs	r2, #0
 430 00ce 1A60     		str	r2, [r3]
 431              	.L23:
 140:main.c        ****             }
 141:main.c        ****             if(zustand == 4 && timer == 1) {
 432              		.loc 1 141 0
 433 00d0 7B68     		ldr	r3, [r7, #4]
 434 00d2 042B     		cmp	r3, #4
 435 00d4 0BD1     		bne	.L24
 436              		.loc 1 141 0 is_stmt 0 discriminator 1
 437 00d6 5A4B     		ldr	r3, .L40+32
 438 00d8 1B68     		ldr	r3, [r3]
 439 00da 012B     		cmp	r3, #1
 440 00dc 07D1     		bne	.L24
 142:main.c        ****                 cleanState();
 441              		.loc 1 142 0 is_stmt 1
 442 00de FFF7FEFF 		bl	cleanState
 143:main.c        ****                 zustand++;
 443              		.loc 1 143 0
 444 00e2 7B68     		ldr	r3, [r7, #4]
 445 00e4 0133     		adds	r3, r3, #1
 446 00e6 7B60     		str	r3, [r7, #4]
 144:main.c        ****                 timer = 0;
 447              		.loc 1 144 0
 448 00e8 554B     		ldr	r3, .L40+32
 449 00ea 0022     		movs	r2, #0
ARM GAS  C:\Users\dmaks\AppData\Local\Temp\ccv7w8Sz.s 			page 12


 450 00ec 1A60     		str	r2, [r3]
 451              	.L24:
 145:main.c        ****             }            
 146:main.c        ****             if(zustand == 5 && timer == 1) {
 452              		.loc 1 146 0
 453 00ee 7B68     		ldr	r3, [r7, #4]
 454 00f0 052B     		cmp	r3, #5
 455 00f2 0BD1     		bne	.L25
 456              		.loc 1 146 0 is_stmt 0 discriminator 1
 457 00f4 524B     		ldr	r3, .L40+32
 458 00f6 1B68     		ldr	r3, [r3]
 459 00f8 012B     		cmp	r3, #1
 460 00fa 07D1     		bne	.L25
 147:main.c        ****                 prepareEastWestToDrive();
 461              		.loc 1 147 0 is_stmt 1
 462 00fc FFF7FEFF 		bl	prepareEastWestToDrive
 148:main.c        ****                 zustand++;
 463              		.loc 1 148 0
 464 0100 7B68     		ldr	r3, [r7, #4]
 465 0102 0133     		adds	r3, r3, #1
 466 0104 7B60     		str	r3, [r7, #4]
 149:main.c        ****                 timer = 0;
 467              		.loc 1 149 0
 468 0106 4E4B     		ldr	r3, .L40+32
 469 0108 0022     		movs	r2, #0
 470 010a 1A60     		str	r2, [r3]
 471              	.L25:
 150:main.c        ****             }            
 151:main.c        ****             if(zustand == 6 && timer == 1) {
 472              		.loc 1 151 0
 473 010c 7B68     		ldr	r3, [r7, #4]
 474 010e 062B     		cmp	r3, #6
 475 0110 0BD1     		bne	.L26
 476              		.loc 1 151 0 is_stmt 0 discriminator 1
 477 0112 4B4B     		ldr	r3, .L40+32
 478 0114 1B68     		ldr	r3, [r3]
 479 0116 012B     		cmp	r3, #1
 480 0118 07D1     		bne	.L26
 152:main.c        ****                 allowEastWestToDrive();
 481              		.loc 1 152 0 is_stmt 1
 482 011a FFF7FEFF 		bl	allowEastWestToDrive
 153:main.c        ****                 zustand++;
 483              		.loc 1 153 0
 484 011e 7B68     		ldr	r3, [r7, #4]
 485 0120 0133     		adds	r3, r3, #1
 486 0122 7B60     		str	r3, [r7, #4]
 154:main.c        ****                 timer = 0;
 487              		.loc 1 154 0
 488 0124 464B     		ldr	r3, .L40+32
 489 0126 0022     		movs	r2, #0
 490 0128 1A60     		str	r2, [r3]
 491              	.L26:
 155:main.c        ****             }           
 156:main.c        ****             if(zustand == 7 && timer == 2) {
 492              		.loc 1 156 0
 493 012a 7B68     		ldr	r3, [r7, #4]
 494 012c 072B     		cmp	r3, #7
ARM GAS  C:\Users\dmaks\AppData\Local\Temp\ccv7w8Sz.s 			page 13


 495 012e 0AD1     		bne	.L19
 496              		.loc 1 156 0 is_stmt 0 discriminator 1
 497 0130 434B     		ldr	r3, .L40+32
 498 0132 1B68     		ldr	r3, [r3]
 499 0134 022B     		cmp	r3, #2
 500 0136 06D1     		bne	.L19
 157:main.c        ****                 prepareEastWestToStop();
 501              		.loc 1 157 0 is_stmt 1
 502 0138 FFF7FEFF 		bl	prepareEastWestToStop
 158:main.c        ****                 zustand = 0;
 503              		.loc 1 158 0
 504 013c 0023     		movs	r3, #0
 505 013e 7B60     		str	r3, [r7, #4]
 159:main.c        ****                 timer = 0;
 506              		.loc 1 159 0
 507 0140 3F4B     		ldr	r3, .L40+32
 508 0142 0022     		movs	r2, #0
 509 0144 1A60     		str	r2, [r3]
 510              	.L19:
 160:main.c        ****             }
 161:main.c        ****         }            
 162:main.c        ****         // Behandlung Button-Ereignis aus ISR
 163:main.c        ****         if(fCWEW_Isr){
 511              		.loc 1 163 0
 512 0146 3F4B     		ldr	r3, .L40+36
 513 0148 1B78     		ldrb	r3, [r3]	@ zero_extendqisi2
 514 014a 002B     		cmp	r3, #0
 515 014c 2ED0     		beq	.L27
 164:main.c        ****             // schneller auf weiß für Fußgänger OST-WEST
 165:main.c        ****             if (zustand == 0) { // alle rot -> direkt NORD-SÜD auf gelb -> state 2 wird aktiviert
 516              		.loc 1 165 0
 517 014e 7B68     		ldr	r3, [r7, #4]
 518 0150 002B     		cmp	r3, #0
 519 0152 06D1     		bne	.L28
 166:main.c        ****                 prepareNorthSouthToDrive();
 520              		.loc 1 166 0
 521 0154 FFF7FEFF 		bl	prepareNorthSouthToDrive
 167:main.c        ****                 zustand = 2;
 522              		.loc 1 167 0
 523 0158 0223     		movs	r3, #2
 524 015a 7B60     		str	r3, [r7, #4]
 168:main.c        ****                 timer = 0;
 525              		.loc 1 168 0
 526 015c 384B     		ldr	r3, .L40+32
 527 015e 0022     		movs	r2, #0
 528 0160 1A60     		str	r2, [r3]
 529              	.L28:
 169:main.c        ****             }          
 170:main.c        ****             // länger auf weiß für Fußgänger OST-WEST
 171:main.c        ****             if (zustand == 3 && timer < 3) {
 530              		.loc 1 171 0
 531 0162 7B68     		ldr	r3, [r7, #4]
 532 0164 032B     		cmp	r3, #3
 533 0166 08D1     		bne	.L29
 534              		.loc 1 171 0 is_stmt 0 discriminator 1
 535 0168 354B     		ldr	r3, .L40+32
 536 016a 1B68     		ldr	r3, [r3]
ARM GAS  C:\Users\dmaks\AppData\Local\Temp\ccv7w8Sz.s 			page 14


 537 016c 022B     		cmp	r3, #2
 538 016e 04D8     		bhi	.L29
 172:main.c        ****                 timer = timer - 2;
 539              		.loc 1 172 0 is_stmt 1
 540 0170 334B     		ldr	r3, .L40+32
 541 0172 1B68     		ldr	r3, [r3]
 542 0174 023B     		subs	r3, r3, #2
 543 0176 324A     		ldr	r2, .L40+32
 544 0178 1360     		str	r3, [r2]
 545              	.L29:
 173:main.c        ****             }            
 174:main.c        ****             // schneller auf weiß für Fußgänger NORD-SÜD
 175:main.c        ****             if (zustand == 4) { // alle rot -> direkt OST-WEST auf gelb -> state 6 wird aktiviert
 546              		.loc 1 175 0
 547 017a 7B68     		ldr	r3, [r7, #4]
 548 017c 042B     		cmp	r3, #4
 549 017e 06D1     		bne	.L30
 176:main.c        ****                 prepareEastWestToDrive();
 550              		.loc 1 176 0
 551 0180 FFF7FEFF 		bl	prepareEastWestToDrive
 177:main.c        ****                 zustand = 6;
 552              		.loc 1 177 0
 553 0184 0623     		movs	r3, #6
 554 0186 7B60     		str	r3, [r7, #4]
 178:main.c        ****                 timer = 0;
 555              		.loc 1 178 0
 556 0188 2D4B     		ldr	r3, .L40+32
 557 018a 0022     		movs	r2, #0
 558 018c 1A60     		str	r2, [r3]
 559              	.L30:
 179:main.c        ****             }
 180:main.c        ****              // länger auf weiß für Fußgänger NORD-SÜD
 181:main.c        ****             if (zustand == 7 && timer < 2) {
 560              		.loc 1 181 0
 561 018e 7B68     		ldr	r3, [r7, #4]
 562 0190 072B     		cmp	r3, #7
 563 0192 08D1     		bne	.L31
 564              		.loc 1 181 0 is_stmt 0 discriminator 1
 565 0194 2A4B     		ldr	r3, .L40+32
 566 0196 1B68     		ldr	r3, [r3]
 567 0198 012B     		cmp	r3, #1
 568 019a 04D8     		bhi	.L31
 182:main.c        ****                 timer = timer - 2;
 569              		.loc 1 182 0 is_stmt 1
 570 019c 284B     		ldr	r3, .L40+32
 571 019e 1B68     		ldr	r3, [r3]
 572 01a0 023B     		subs	r3, r3, #2
 573 01a2 274A     		ldr	r2, .L40+32
 574 01a4 1360     		str	r3, [r2]
 575              	.L31:
 183:main.c        ****             }
 184:main.c        ****             fCWEW_Isr = 0; // Wieder auf Null!
 576              		.loc 1 184 0
 577 01a6 274B     		ldr	r3, .L40+36
 578 01a8 0022     		movs	r2, #0
 579 01aa 1A70     		strb	r2, [r3]
 580              	.L27:
ARM GAS  C:\Users\dmaks\AppData\Local\Temp\ccv7w8Sz.s 			page 15


 185:main.c        ****         }
 186:main.c        ****         /* 
 187:main.c        ****          * Character aus Uart ISR abfragen 
 188:main.c        ****          * Beispiel für Menuesteuerung
 189:main.c        ****          */
 190:main.c        ****         
 191:main.c        ****         if ( cRx ) {
 581              		.loc 1 191 0
 582 01ac 224B     		ldr	r3, .L40+24
 583 01ae 1B78     		ldrb	r3, [r3]	@ zero_extendqisi2
 584 01b0 002B     		cmp	r3, #0
 585 01b2 3FF444AF 		beq	.L39
 586              	.LBB3:
 192:main.c        ****             char c = cRx;   // copy char
 587              		.loc 1 192 0
 588 01b6 204B     		ldr	r3, .L40+24
 589 01b8 1B78     		ldrb	r3, [r3]
 590 01ba FB70     		strb	r3, [r7, #3]
 193:main.c        ****             cRx = 0;        // nicht vergessen!!! Warum?
 591              		.loc 1 193 0
 592 01bc 1E4B     		ldr	r3, .L40+24
 593 01be 0022     		movs	r2, #0
 594 01c0 1A70     		strb	r2, [r3]
 194:main.c        ****             // +++ Menuesteuerung +++
 195:main.c        ****             sprintf( buffer, "Handle Keyboard %c\n\r", c );
 595              		.loc 1 195 0
 596 01c2 FB78     		ldrb	r3, [r7, #3]	@ zero_extendqisi2
 597 01c4 1A46     		mov	r2, r3
 598 01c6 2049     		ldr	r1, .L40+40
 599 01c8 1A48     		ldr	r0, .L40+20
 600 01ca FFF7FEFF 		bl	sprintf
 196:main.c        ****             UART_PutString( buffer );
 601              		.loc 1 196 0
 602 01ce 1948     		ldr	r0, .L40+20
 603 01d0 FFF7FEFF 		bl	UART_PutString
 197:main.c        ****             switch ( c ) {
 604              		.loc 1 197 0
 605 01d4 FB78     		ldrb	r3, [r7, #3]	@ zero_extendqisi2
 606 01d6 482B     		cmp	r3, #72
 607 01d8 17D0     		beq	.L34
 608 01da 482B     		cmp	r3, #72
 609 01dc 04DC     		bgt	.L35
 610 01de 2B2B     		cmp	r3, #43
 611 01e0 0BD0     		beq	.L36
 612 01e2 2D2B     		cmp	r3, #45
 613 01e4 0DD0     		beq	.L37
 614 01e6 14E0     		b	.L33
 615              	.L35:
 616 01e8 682B     		cmp	r3, #104
 617 01ea 0ED0     		beq	.L34
 618 01ec 712B     		cmp	r3, #113
 619 01ee 01D0     		beq	.L38
 620 01f0 512B     		cmp	r3, #81
 621 01f2 0ED1     		bne	.L33
 622              	.L38:
 198:main.c        ****                 // Software reset, startet Programm neu
 199:main.c        ****                 case 'q':
ARM GAS  C:\Users\dmaks\AppData\Local\Temp\ccv7w8Sz.s 			page 16


 200:main.c        ****                 case 'Q':   // fallthrough
 201:main.c        ****                     CySoftwareReset();
 623              		.loc 1 201 0
 624 01f4 FFF7FEFF 		bl	CySoftwareReset
 202:main.c        ****                     break;
 625              		.loc 1 202 0
 626 01f8 10E0     		b	.L32
 627              	.L36:
 203:main.c        ****                 case '+':   // fallthrough
 204:main.c        ****                     brightness_settings(1);
 628              		.loc 1 204 0
 629 01fa 0120     		movs	r0, #1
 630 01fc FFF7FEFF 		bl	brightness_settings
 205:main.c        ****                     break;
 631              		.loc 1 205 0
 632 0200 0CE0     		b	.L32
 633              	.L37:
 206:main.c        ****                 case '-': 
 207:main.c        ****                     brightness_settings(0);
 634              		.loc 1 207 0
 635 0202 0020     		movs	r0, #0
 636 0204 FFF7FEFF 		bl	brightness_settings
 208:main.c        ****                     break;
 637              		.loc 1 208 0
 638 0208 08E0     		b	.L32
 639              	.L34:
 209:main.c        ****                 case 'h':   // help
 210:main.c        ****                 case 'H':   // fallthrough
 211:main.c        ****                     UART_PutString( "\n\rHelp:\n\r\\th,H: help\n\r\\tq,Q: software reset\n\r" );
 640              		.loc 1 211 0
 641 020a 1048     		ldr	r0, .L40+44
 642 020c FFF7FEFF 		bl	UART_PutString
 212:main.c        ****                     break;
 643              		.loc 1 212 0
 644 0210 04E0     		b	.L32
 645              	.L33:
 213:main.c        ****                 default:
 214:main.c        ****                     UART_PutChar( c );    // Buchstabe auf Bildschirm ausgeben
 646              		.loc 1 214 0
 647 0212 FB78     		ldrb	r3, [r7, #3]	@ zero_extendqisi2
 648 0214 1846     		mov	r0, r3
 649 0216 FFF7FEFF 		bl	UART_PutChar
 215:main.c        ****                     break;
 650              		.loc 1 215 0
 651 021a 00BF     		nop
 652              	.L32:
 653              	.LBE3:
 216:main.c        ****             }  // end switch          
 217:main.c        ****         } // end if cRx                        
 218:main.c        ****     } // end for
 654              		.loc 1 218 0
 655 021c 0FE7     		b	.L39
 656              	.L41:
 657 021e 00BF     		.align	2
 658              	.L40:
 659 0220 00000000 		.word	MyIsrUartRX
 660 0224 00000000 		.word	MyIsrCWEW
ARM GAS  C:\Users\dmaks\AppData\Local\Temp\ccv7w8Sz.s 			page 17


 661 0228 00000000 		.word	IsrAppClk
 662 022c 00000000 		.word	.LC0
 663 0230 74000000 		.word	.LC1
 664 0234 00000000 		.word	buffer
 665 0238 80000000 		.word	cRx
 666 023c 88000000 		.word	fsClock
 667 0240 8C000000 		.word	timer
 668 0244 81000000 		.word	fCWEW_Isr
 669 0248 84000000 		.word	.LC2
 670 024c 9C000000 		.word	.LC3
 671              		.cfi_endproc
 672              	.LFE68:
 673              		.size	main, .-main
 674              		.text
 675              	.Letext0:
 676              		.file 2 "c:\\program files (x86)\\cypress\\psoc creator\\4.4\\psoc creator\\import\\gnu\\arm\\5.4.
 677              		.file 3 "c:\\program files (x86)\\cypress\\psoc creator\\4.4\\psoc creator\\import\\gnu\\arm\\5.4.
 678              		.file 4 "Generated_Source\\PSoC5/cytypes.h"
 679              		.file 5 "c:\\program files (x86)\\cypress\\psoc creator\\4.4\\psoc creator\\import\\gnu\\arm\\5.4.
 680              		.file 6 "Generated_Source\\PSoC5/core_cm3.h"