ARM GAS  C:\Users\thieu\AppData\Local\Temp\ccF3uG4q.s 			page 1


   1              		.syntax unified
   2              		.cpu cortex-m3
   3              		.fpu softvfp
   4              		.eabi_attribute 20, 1
   5              		.eabi_attribute 21, 1
   6              		.eabi_attribute 23, 3
   7              		.eabi_attribute 24, 1
   8              		.eabi_attribute 25, 1
   9              		.eabi_attribute 26, 1
  10              		.eabi_attribute 30, 1
  11              		.eabi_attribute 34, 1
  12              		.eabi_attribute 18, 4
  13              		.thumb
  14              		.syntax unified
  15              		.file	"main.c"
  16              		.text
  17              	.Ltext0:
  18              		.cfi_sections	.debug_frame
  19              		.section	.text.MyIsrUartRX,"ax",%progbits
  20              		.align	2
  21              		.global	MyIsrUartRX
  22              		.thumb
  23              		.thumb_func
  24              		.type	MyIsrUartRX, %function
  25              	MyIsrUartRX:
  26              	.LFB69:
  27              		.file 1 "main.c"
   1:main.c        **** /* ========================================
   2:main.c        ****  *
   3:main.c        ****  * Copyright R. Mayer, h_da, FbI, 2022
   4:main.c        ****  * All Rights Reserved
   5:main.c        ****  * UNPUBLISHED, LICENSED SOFTWARE.
   6:main.c        ****  *
   7:main.c        ****  * CONFIDENTIAL AND PROPRIETARY INFORMATION
   8:main.c        ****  * WHICH IS THE PROPERTY OF your company.
   9:main.c        ****  *
  10:main.c        ****  * ========================================
  11:main.c        **** */
  12:main.c        **** #include "project.h"
  13:main.c        **** #include <stdio.h>      // für string-Operationen wie sprintf
  14:main.c        **** #include "scale.h"      // Tonleiter / Frequenzen
  15:main.c        **** 
  16:main.c        **** /*
  17:main.c        ****  * Diese Definitionen ermöglichen es, 
  18:main.c        ****  * einfach Informationen auf den Bildschirm zu schreiben
  19:main.c        ****  */
  20:main.c        **** #define _VERSION_NR     "ver. 1.0"          //!< Version number. Please update
  21:main.c        **** #define _PROJECT_NAME   "MPS_W22_Prakt_4"  //!< Project name
  22:main.c        **** #define _PROCESSOR      "PSoC 5LP"          //!< Processor type
  23:main.c        **** #define _DEVICE_NAME    "FreeSoC2"          //!< Board or device type
  24:main.c        **** #define _AUTHOR_        "Nick Otin, Marie O'hana"
  25:main.c        **** #define _COMPANY        "Template MPS22 Termin 4"
  26:main.c        **** 
  27:main.c        **** // String für die Anzeige zusammenbauen
  28:main.c        **** #define _VERSTR_       (_PROJECT_NAME", "_DEVICE_NAME", "_PROCESSOR", "_VERSION_NR"\n\r"\
  29:main.c        **** _AUTHOR_" ("_COMPANY"), "__DATE__" "__TIME__)
  30:main.c        **** 
ARM GAS  C:\Users\thieu\AppData\Local\Temp\ccF3uG4q.s 			page 2


  31:main.c        **** /* 
  32:main.c        ****  * String Buffer für Anzeige am Bildschirm anlegen.
  33:main.c        ****  * Auf die maximale Größe achten!
  34:main.c        ****  */
  35:main.c        **** #define BUFFER_SIZE 128             //!< string output buffer size for sprintf
  36:main.c        **** static char buffer[BUFFER_SIZE];    //!< buffer (global) for sprintf
  37:main.c        **** 
  38:main.c        **** static char cRx = 0;                //!< character from UART, visible within main.c
  39:main.c        **** 
  40:main.c        **** #define SOUND_OFF Out_Ena_Write(0)  //!< disable sound output
  41:main.c        **** #define SOUND_ON  Out_Ena_Write(1)  //!< enable sound output
  42:main.c        **** 
  43:main.c        **** #include "scale.h"
  44:main.c        **** #define SysClk 24000000
  45:main.c        **** #define pre2 2      //f(tc) multiplier
  46:main.c        **** #define topValue 1
  47:main.c        **** #define prescaler 16
  48:main.c        **** 
  49:main.c        ****     /*Define your macro callbacks here */
  50:main.c        ****     /*For more information, refer to the Writing Code topic in the PSoC Creator Help.*/
  51:main.c        **** 
  52:main.c        **** 
  53:main.c        **** /* +++ TODO                 +++
  54:main.c        ****  *     nützliche Macros ...
  55:main.c        ****  */
  56:main.c        **** 
  57:main.c        ****     void setTone(eTone p_tone) {
  58:main.c        ****         Timer_WritePeriod(SysClk / (pre2 * prescaler * topValue) / p_tone);
  59:main.c        ****         Out_Ena_Write(1);      
  60:main.c        ****     }
  61:main.c        **** 
  62:main.c        **** /**
  63:main.c        ****  * Struktur zur Beschreibung einer einzelnen Note.
  64:main.c        ****  * Einfache Version ohne Artikulierung etc.
  65:main.c        ****  * @version 2022-12-11
  66:main.c        ****  */
  67:main.c        **** typedef struct {
  68:main.c        ****     eTone       tone;       //!< enummeration note name and frequency
  69:main.c        ****     float       duration;   //!< tone or pause duration in ms, e.g. 1, 1/2, 1/4, ....
  70:main.c        **** } sNoteSimple_t;
  71:main.c        **** 
  72:main.c        **** /**
  73:main.c        ****  * Definition einer Tonfolge mit Tondauer unter Verwendung von
  74:main.c        ****  * @see sNoteSimple_t
  75:main.c        ****  * und
  76:main.c        ****  * @see eTone
  77:main.c        ****  */
  78:main.c        **** void playTone(const sNoteSimple_t* psNote) {
  79:main.c        ****     setTone(psNote->tone);
  80:main.c        ****     SOUND_ON;
  81:main.c        ****     CyDelay(psNote->duration*1000);
  82:main.c        ****     SOUND_OFF;
  83:main.c        **** }
  84:main.c        **** void toneSettings(eTone tone, float dauer) {
  85:main.c        ****     sNoteSimple_t tempNote;
  86:main.c        ****     tempNote.duration = dauer;
  87:main.c        ****     tempNote.tone = tone;
ARM GAS  C:\Users\thieu\AppData\Local\Temp\ccF3uG4q.s 			page 3


  88:main.c        ****     playTone(&tempNote);
  89:main.c        **** }
  90:main.c        **** 
  91:main.c        **** sNoteSimple_t harm[] = { 
  92:main.c        ****                    {C5, 1./4}, {E5, 1./4}, {G5, 1./4}, 
  93:main.c        ****                    {C5, 1./4}, {E5, 1./4}, {G5, 1./4}, 
  94:main.c        ****                    {C5, 1./4}, {F5, 1./4}, {A5, 1./4}, 
  95:main.c        ****                    {C5, 1./4}, {F5, 1./4}, {A5, 1./4}, 
  96:main.c        ****                    {H4, 1./4}, {D5, 1./4}, {G5, 1./4}, 
  97:main.c        ****                    {H4, 1./4}, {D5, 1./4}, {G5, 1./4}, 
  98:main.c        ****                    {C5, 3./4}, {pse, 1./4}, {D5, 4./4}, {C5, 7./4},                
  99:main.c        ****                  };
 100:main.c        **** 
 101:main.c        **** /* +++ TODO                 +++
 102:main.c        ****  *     Funktion zum Abspielen von 'Lied'
 103:main.c        ****  */
 104:main.c        ****     /**
 105:main.c        ****      * Play a sequence of tones.
 106:main.c        ****      *
 107:main.c        ****      * @param[in] psNote pointer to sNoteSimple_t array
 108:main.c        ****      * @param len length of array
 109:main.c        ****      * @return void
 110:main.c        ****      * @todo Implementieren!
 111:main.c        ****      */
 112:main.c        **** void playSong(){
 113:main.c        ****     int length = sizeof(harm)/sizeof(harm[0]);
 114:main.c        ****     for(int i= 0; i < length; i++) {
 115:main.c        ****         playTone(&harm[i]);
 116:main.c        ****     }
 117:main.c        **** }
 118:main.c        ****     void play( const sNoteSimple_t* psNote, uint16_t len ) {
 119:main.c        ****         // +++ TODO +++
 120:main.c        ****         return;
 121:main.c        ****     }
 122:main.c        **** 
 123:main.c        **** /** 
 124:main.c        ****  * UART RX interrupt service routine.
 125:main.c        ****  *
 126:main.c        ****  * Collect a characters from UART into a global input variable.
 127:main.c        ****  * @see cRx
 128:main.c        ****  */
 129:main.c        **** CY_ISR( MyIsrUartRX ) {
  28              		.loc 1 129 0
  29              		.cfi_startproc
  30              		@ args = 0, pretend = 0, frame = 0
  31              		@ frame_needed = 0, uses_anonymous_args = 0
  32 0000 08B5     		push	{r3, lr}
  33              		.cfi_def_cfa_offset 8
  34              		.cfi_offset 3, -8
  35              		.cfi_offset 14, -4
 130:main.c        ****     cRx = UART_GetChar();     // copy char
  36              		.loc 1 130 0
  37 0002 FFF7FEFF 		bl	UART_GetChar
  38              	.LVL0:
  39 0006 014B     		ldr	r3, .L3
  40 0008 1870     		strb	r0, [r3]
  41 000a 08BD     		pop	{r3, pc}
ARM GAS  C:\Users\thieu\AppData\Local\Temp\ccF3uG4q.s 			page 4


  42              	.L4:
  43              		.align	2
  44              	.L3:
  45 000c 00000000 		.word	.LANCHOR0
  46              		.cfi_endproc
  47              	.LFE69:
  48              		.size	MyIsrUartRX, .-MyIsrUartRX
  49              		.section	.text.setTone,"ax",%progbits
  50              		.align	2
  51              		.global	setTone
  52              		.thumb
  53              		.thumb_func
  54              		.type	setTone, %function
  55              	setTone:
  56              	.LFB64:
  57:main.c        ****         Timer_WritePeriod(SysClk / (pre2 * prescaler * topValue) / p_tone);
  57              		.loc 1 57 0
  58              		.cfi_startproc
  59              		@ args = 0, pretend = 0, frame = 0
  60              		@ frame_needed = 0, uses_anonymous_args = 0
  61              	.LVL1:
  62 0000 08B5     		push	{r3, lr}
  63              		.cfi_def_cfa_offset 8
  64              		.cfi_offset 3, -8
  65              		.cfi_offset 14, -4
  58:main.c        ****         Out_Ena_Write(1);      
  66              		.loc 1 58 0
  67 0002 054B     		ldr	r3, .L7
  68 0004 93FBF0F0 		sdiv	r0, r3, r0
  69              	.LVL2:
  70 0008 80B2     		uxth	r0, r0
  71 000a FFF7FEFF 		bl	Timer_WritePeriod
  72              	.LVL3:
  59:main.c        ****     }
  73              		.loc 1 59 0
  74 000e 0120     		movs	r0, #1
  75 0010 FFF7FEFF 		bl	Out_Ena_Write
  76              	.LVL4:
  77 0014 08BD     		pop	{r3, pc}
  78              	.L8:
  79 0016 00BF     		.align	2
  80              	.L7:
  81 0018 B0710B00 		.word	750000
  82              		.cfi_endproc
  83              	.LFE64:
  84              		.size	setTone, .-setTone
  85              		.global	__aeabi_fmul
  86              		.global	__aeabi_f2uiz
  87              		.section	.text.playTone,"ax",%progbits
  88              		.align	2
  89              		.global	playTone
  90              		.thumb
  91              		.thumb_func
  92              		.type	playTone, %function
  93              	playTone:
  94              	.LFB65:
  78:main.c        ****     setTone(psNote->tone);
ARM GAS  C:\Users\thieu\AppData\Local\Temp\ccF3uG4q.s 			page 5


  95              		.loc 1 78 0
  96              		.cfi_startproc
  97              		@ args = 0, pretend = 0, frame = 0
  98              		@ frame_needed = 0, uses_anonymous_args = 0
  99              	.LVL5:
 100 0000 10B5     		push	{r4, lr}
 101              		.cfi_def_cfa_offset 8
 102              		.cfi_offset 4, -8
 103              		.cfi_offset 14, -4
 104 0002 0446     		mov	r4, r0
  79:main.c        ****     SOUND_ON;
 105              		.loc 1 79 0
 106 0004 0088     		ldrh	r0, [r0]
 107              	.LVL6:
 108 0006 FFF7FEFF 		bl	setTone
 109              	.LVL7:
  80:main.c        ****     CyDelay(psNote->duration*1000);
 110              		.loc 1 80 0
 111 000a 0120     		movs	r0, #1
 112 000c FFF7FEFF 		bl	Out_Ena_Write
 113              	.LVL8:
  81:main.c        ****     SOUND_OFF;
 114              		.loc 1 81 0
 115 0010 0549     		ldr	r1, .L11
 116 0012 6068     		ldr	r0, [r4, #4]	@ float
 117 0014 FFF7FEFF 		bl	__aeabi_fmul
 118              	.LVL9:
 119 0018 FFF7FEFF 		bl	__aeabi_f2uiz
 120              	.LVL10:
 121 001c FFF7FEFF 		bl	CyDelay
 122              	.LVL11:
  82:main.c        **** }
 123              		.loc 1 82 0
 124 0020 0020     		movs	r0, #0
 125 0022 FFF7FEFF 		bl	Out_Ena_Write
 126              	.LVL12:
 127 0026 10BD     		pop	{r4, pc}
 128              	.LVL13:
 129              	.L12:
 130              		.align	2
 131              	.L11:
 132 0028 00007A44 		.word	1148846080
 133              		.cfi_endproc
 134              	.LFE65:
 135              		.size	playTone, .-playTone
 136              		.section	.text.toneSettings,"ax",%progbits
 137              		.align	2
 138              		.global	toneSettings
 139              		.thumb
 140              		.thumb_func
 141              		.type	toneSettings, %function
 142              	toneSettings:
 143              	.LFB66:
  84:main.c        ****     sNoteSimple_t tempNote;
 144              		.loc 1 84 0
 145              		.cfi_startproc
 146              		@ args = 0, pretend = 0, frame = 8
ARM GAS  C:\Users\thieu\AppData\Local\Temp\ccF3uG4q.s 			page 6


 147              		@ frame_needed = 0, uses_anonymous_args = 0
 148              	.LVL14:
 149 0000 00B5     		push	{lr}
 150              		.cfi_def_cfa_offset 4
 151              		.cfi_offset 14, -4
 152 0002 83B0     		sub	sp, sp, #12
 153              		.cfi_def_cfa_offset 16
  86:main.c        ****     tempNote.tone = tone;
 154              		.loc 1 86 0
 155 0004 0191     		str	r1, [sp, #4]	@ float
  87:main.c        ****     playTone(&tempNote);
 156              		.loc 1 87 0
 157 0006 02AB     		add	r3, sp, #8
 158 0008 23F8080D 		strh	r0, [r3, #-8]!	@ movhi
  88:main.c        **** }
 159              		.loc 1 88 0
 160 000c 1846     		mov	r0, r3
 161              	.LVL15:
 162 000e FFF7FEFF 		bl	playTone
 163              	.LVL16:
  89:main.c        **** 
 164              		.loc 1 89 0
 165 0012 03B0     		add	sp, sp, #12
 166              		.cfi_def_cfa_offset 4
 167              		@ sp needed
 168 0014 5DF804FB 		ldr	pc, [sp], #4
 169              		.cfi_endproc
 170              	.LFE66:
 171              		.size	toneSettings, .-toneSettings
 172              		.section	.text.playSong,"ax",%progbits
 173              		.align	2
 174              		.global	playSong
 175              		.thumb
 176              		.thumb_func
 177              		.type	playSong, %function
 178              	playSong:
 179              	.LFB67:
 112:main.c        ****     int length = sizeof(harm)/sizeof(harm[0]);
 180              		.loc 1 112 0
 181              		.cfi_startproc
 182              		@ args = 0, pretend = 0, frame = 0
 183              		@ frame_needed = 0, uses_anonymous_args = 0
 184 0000 10B5     		push	{r4, lr}
 185              		.cfi_def_cfa_offset 8
 186              		.cfi_offset 4, -8
 187              		.cfi_offset 14, -4
 188              	.LVL17:
 189              	.LBB2:
 114:main.c        ****         playTone(&harm[i]);
 190              		.loc 1 114 0
 191 0002 0024     		movs	r4, #0
 192 0004 05E0     		b	.L16
 193              	.LVL18:
 194              	.L17:
 115:main.c        ****     }
 195              		.loc 1 115 0 discriminator 3
 196 0006 0448     		ldr	r0, .L19
ARM GAS  C:\Users\thieu\AppData\Local\Temp\ccF3uG4q.s 			page 7


 197 0008 00EBC400 		add	r0, r0, r4, lsl #3
 198 000c FFF7FEFF 		bl	playTone
 199              	.LVL19:
 114:main.c        ****         playTone(&harm[i]);
 200              		.loc 1 114 0 discriminator 3
 201 0010 0134     		adds	r4, r4, #1
 202              	.LVL20:
 203              	.L16:
 114:main.c        ****         playTone(&harm[i]);
 204              		.loc 1 114 0 is_stmt 0 discriminator 1
 205 0012 152C     		cmp	r4, #21
 206 0014 F7DD     		ble	.L17
 207              	.LBE2:
 117:main.c        ****     void play( const sNoteSimple_t* psNote, uint16_t len ) {
 208              		.loc 1 117 0 is_stmt 1
 209 0016 10BD     		pop	{r4, pc}
 210              	.LVL21:
 211              	.L20:
 212              		.align	2
 213              	.L19:
 214 0018 00000000 		.word	.LANCHOR1
 215              		.cfi_endproc
 216              	.LFE67:
 217              		.size	playSong, .-playSong
 218              		.section	.text.play,"ax",%progbits
 219              		.align	2
 220              		.global	play
 221              		.thumb
 222              		.thumb_func
 223              		.type	play, %function
 224              	play:
 225              	.LFB68:
 118:main.c        ****         // +++ TODO +++
 226              		.loc 1 118 0
 227              		.cfi_startproc
 228              		@ args = 0, pretend = 0, frame = 0
 229              		@ frame_needed = 0, uses_anonymous_args = 0
 230              		@ link register save eliminated.
 231              	.LVL22:
 232 0000 7047     		bx	lr
 233              		.cfi_endproc
 234              	.LFE68:
 235              		.size	play, .-play
 236 0002 00BF     		.section	.text.main,"ax",%progbits
 237              		.align	2
 238              		.global	main
 239              		.thumb
 240              		.thumb_func
 241              		.type	main, %function
 242              	main:
 243              	.LFB70:
 131:main.c        **** }
 132:main.c        **** 
 133:main.c        **** /**
 134:main.c        ****  * Basisprojekt mit UART mit Interrupt. 
 135:main.c        ****  * für FreeSoC2
 136:main.c        ****  * 
ARM GAS  C:\Users\thieu\AppData\Local\Temp\ccF3uG4q.s 			page 8


 137:main.c        ****  * @author Ralf S. Mayer
 138:main.c        ****  * @date 2022-12-11
 139:main.c        ****  * @version 1.0
 140:main.c        ****  */
 141:main.c        **** int main(void)
 142:main.c        **** {
 244              		.loc 1 142 0
 245              		.cfi_startproc
 246              		@ args = 0, pretend = 0, frame = 0
 247              		@ frame_needed = 0, uses_anonymous_args = 0
 248              		.loc 1 142 0
 249 0000 10B5     		push	{r4, lr}
 250              		.cfi_def_cfa_offset 8
 251              		.cfi_offset 4, -8
 252              		.cfi_offset 14, -4
 143:main.c        ****     Timer_ReadPeriod();
 253              		.loc 1 143 0
 254 0002 FFF7FEFF 		bl	Timer_ReadPeriod
 255              	.LVL23:
 144:main.c        ****     /* Initialisierung */
 145:main.c        ****     UART_Start();           // start UART
 256              		.loc 1 145 0
 257 0006 FFF7FEFF 		bl	UART_Start
 258              	.LVL24:
 146:main.c        ****     isr_UART_RX_StartEx( MyIsrUartRX ); // enable itr uart
 259              		.loc 1 146 0
 260 000a 5748     		ldr	r0, .L44
 261 000c FFF7FEFF 		bl	isr_UART_RX_StartEx
 262              	.LVL25:
 147:main.c        ****     
 148:main.c        ****     Timer_Start();
 263              		.loc 1 148 0
 264 0010 FFF7FEFF 		bl	Timer_Start
 265              	.LVL26:
 149:main.c        ****         
 150:main.c        ****     CyGlobalIntEnable; /* Enable global interrupts. */
 266              		.loc 1 150 0
 267              		.syntax unified
 268              	@ 150 "main.c" 1
 269 0014 62B6     		CPSIE   i
 270              	@ 0 "" 2
 151:main.c        **** 
 152:main.c        ****     /* Welcome and info text Ausgabe */
 153:main.c        ****     sprintf( buffer, "\n\rWelcome! %s\n\r", _VERSTR_);  // formatiert in Buffer
 271              		.loc 1 153 0
 272              		.thumb
 273              		.syntax unified
 274 0016 554C     		ldr	r4, .L44+4
 275 0018 554A     		ldr	r2, .L44+8
 276 001a 5649     		ldr	r1, .L44+12
 277 001c 2046     		mov	r0, r4
 278 001e FFF7FEFF 		bl	sprintf
 279              	.LVL27:
 154:main.c        ****     UART_PutString( buffer );                           // Ausgabe auf UART
 280              		.loc 1 154 0
 281 0022 2046     		mov	r0, r4
 282 0024 FFF7FEFF 		bl	UART_PutString
ARM GAS  C:\Users\thieu\AppData\Local\Temp\ccF3uG4q.s 			page 9


 283              	.LVL28:
 284              	.L23:
 155:main.c        ****         
 156:main.c        **** 
 157:main.c        ****     uint8_t regVal = 0;
 158:main.c        ****     // Applikationsschleife
 159:main.c        ****     for(;;)
 160:main.c        ****     {
 161:main.c        ****         //aufgabe 3b
 162:main.c        ****         /* Character aus Uart ISR abfragen */
 163:main.c        ****         if ( cRx ) {
 285              		.loc 1 163 0
 286 0028 534B     		ldr	r3, .L44+16
 287 002a 1878     		ldrb	r0, [r3]	@ zero_extendqisi2
 288 002c 0028     		cmp	r0, #0
 289 002e FBD0     		beq	.L23
 164:main.c        **** 
 165:main.c        ****             switch ( cRx ) {        // write Prescale Register value
 290              		.loc 1 165 0
 291 0030 A0F13003 		sub	r3, r0, #48
 292 0034 4A2B     		cmp	r3, #74
 293 0036 00F29180 		bhi	.L24
 294 003a DFE803F0 		tbb	[pc, r3]
 295              	.L26:
 296 003e 26       		.byte	(.L25-.L26)/2
 297 003f 2A       		.byte	(.L27-.L26)/2
 298 0040 2E       		.byte	(.L28-.L26)/2
 299 0041 32       		.byte	(.L29-.L26)/2
 300 0042 8F       		.byte	(.L24-.L26)/2
 301 0043 8F       		.byte	(.L24-.L26)/2
 302 0044 8F       		.byte	(.L24-.L26)/2
 303 0045 8F       		.byte	(.L24-.L26)/2
 304 0046 8F       		.byte	(.L24-.L26)/2
 305 0047 8F       		.byte	(.L24-.L26)/2
 306 0048 8F       		.byte	(.L24-.L26)/2
 307 0049 8F       		.byte	(.L24-.L26)/2
 308 004a 8F       		.byte	(.L24-.L26)/2
 309 004b 8F       		.byte	(.L24-.L26)/2
 310 004c 8F       		.byte	(.L24-.L26)/2
 311 004d 8F       		.byte	(.L24-.L26)/2
 312 004e 8F       		.byte	(.L24-.L26)/2
 313 004f 8F       		.byte	(.L24-.L26)/2
 314 0050 8F       		.byte	(.L24-.L26)/2
 315 0051 8F       		.byte	(.L24-.L26)/2
 316 0052 8F       		.byte	(.L24-.L26)/2
 317 0053 8F       		.byte	(.L24-.L26)/2
 318 0054 8F       		.byte	(.L24-.L26)/2
 319 0055 8F       		.byte	(.L24-.L26)/2
 320 0056 8F       		.byte	(.L24-.L26)/2
 321 0057 8F       		.byte	(.L24-.L26)/2
 322 0058 8F       		.byte	(.L24-.L26)/2
 323 0059 8F       		.byte	(.L24-.L26)/2
 324 005a 8F       		.byte	(.L24-.L26)/2
 325 005b 8F       		.byte	(.L24-.L26)/2
 326 005c 8F       		.byte	(.L24-.L26)/2
 327 005d 8F       		.byte	(.L24-.L26)/2
 328 005e 8F       		.byte	(.L24-.L26)/2
ARM GAS  C:\Users\thieu\AppData\Local\Temp\ccF3uG4q.s 			page 10


 329 005f 8F       		.byte	(.L24-.L26)/2
 330 0060 8F       		.byte	(.L24-.L26)/2
 331 0061 8F       		.byte	(.L24-.L26)/2
 332 0062 36       		.byte	(.L30-.L26)/2
 333 0063 8F       		.byte	(.L24-.L26)/2
 334 0064 8F       		.byte	(.L24-.L26)/2
 335 0065 8F       		.byte	(.L24-.L26)/2
 336 0066 8F       		.byte	(.L24-.L26)/2
 337 0067 8F       		.byte	(.L24-.L26)/2
 338 0068 8F       		.byte	(.L24-.L26)/2
 339 0069 8F       		.byte	(.L24-.L26)/2
 340 006a 8F       		.byte	(.L24-.L26)/2
 341 006b 8F       		.byte	(.L24-.L26)/2
 342 006c 8F       		.byte	(.L24-.L26)/2
 343 006d 8F       		.byte	(.L24-.L26)/2
 344 006e 8F       		.byte	(.L24-.L26)/2
 345 006f 85       		.byte	(.L31-.L26)/2
 346 0070 8F       		.byte	(.L24-.L26)/2
 347 0071 50       		.byte	(.L32-.L26)/2
 348 0072 57       		.byte	(.L33-.L26)/2
 349 0073 69       		.byte	(.L34-.L26)/2
 350 0074 70       		.byte	(.L35-.L26)/2
 351 0075 77       		.byte	(.L36-.L26)/2
 352 0076 7E       		.byte	(.L37-.L26)/2
 353 0077 8F       		.byte	(.L24-.L26)/2
 354 0078 8F       		.byte	(.L24-.L26)/2
 355 0079 8F       		.byte	(.L24-.L26)/2
 356 007a 8F       		.byte	(.L24-.L26)/2
 357 007b 8F       		.byte	(.L24-.L26)/2
 358 007c 8F       		.byte	(.L24-.L26)/2
 359 007d 8F       		.byte	(.L24-.L26)/2
 360 007e 8C       		.byte	(.L38-.L26)/2
 361 007f 8F       		.byte	(.L24-.L26)/2
 362 0080 8F       		.byte	(.L24-.L26)/2
 363 0081 8F       		.byte	(.L24-.L26)/2
 364 0082 3A       		.byte	(.L39-.L26)/2
 365 0083 8F       		.byte	(.L24-.L26)/2
 366 0084 8F       		.byte	(.L24-.L26)/2
 367 0085 8F       		.byte	(.L24-.L26)/2
 368 0086 8F       		.byte	(.L24-.L26)/2
 369 0087 8F       		.byte	(.L24-.L26)/2
 370 0088 3E       		.byte	(.L40-.L26)/2
 371 0089 00       		.p2align 1
 372              	.L25:
 373              	.LBB3:
 166:main.c        **** 
 167:main.c        ****                 case '0':
 168:main.c        ****                 
 169:main.c        **** 
 170:main.c        ****                     RegPrescaler_Write(0);
 374              		.loc 1 170 0
 375 008a 0020     		movs	r0, #0
 376 008c FFF7FEFF 		bl	RegPrescaler_Write
 377              	.LVL29:
 171:main.c        ****                     
 172:main.c        ****                 
 173:main.c        ****                 break;
ARM GAS  C:\Users\thieu\AppData\Local\Temp\ccF3uG4q.s 			page 11


 378              		.loc 1 173 0
 379 0090 66E0     		b	.L41
 380              	.L27:
 174:main.c        ****                 case '1':
 175:main.c        **** 
 176:main.c        ****                     RegPrescaler_Write(1);
 381              		.loc 1 176 0
 382 0092 0120     		movs	r0, #1
 383 0094 FFF7FEFF 		bl	RegPrescaler_Write
 384              	.LVL30:
 177:main.c        ****                     
 178:main.c        ****                 
 179:main.c        ****                 break;
 385              		.loc 1 179 0
 386 0098 62E0     		b	.L41
 387              	.L28:
 180:main.c        ****                 case '2':
 181:main.c        **** 
 182:main.c        ****                     RegPrescaler_Write(2);
 388              		.loc 1 182 0
 389 009a 0220     		movs	r0, #2
 390 009c FFF7FEFF 		bl	RegPrescaler_Write
 391              	.LVL31:
 183:main.c        ****                     
 184:main.c        ****                     
 185:main.c        ****                 
 186:main.c        ****                 break;
 392              		.loc 1 186 0
 393 00a0 5EE0     		b	.L41
 394              	.L29:
 187:main.c        ****                 case '3':
 188:main.c        ****                     //regVal = cRx - '0';     // erklären, wie das funktioniert!
 189:main.c        ****                 //basically, cRx is a character, in this case when we input 3, we can turn it to in
 190:main.c        ****                     //RegPrescaler_Write( regVal );
 191:main.c        **** 
 192:main.c        ****                     RegPrescaler_Write(3);
 395              		.loc 1 192 0
 396 00a2 0320     		movs	r0, #3
 397 00a4 FFF7FEFF 		bl	RegPrescaler_Write
 398              	.LVL32:
 193:main.c        ****                 
 194:main.c        ****                     break;
 399              		.loc 1 194 0
 400 00a8 5AE0     		b	.L41
 401              	.L30:
 195:main.c        **** 
 196:main.c        ****                 case 'T':           // sound on
 197:main.c        ****                     SOUND_ON;
 402              		.loc 1 197 0
 403 00aa 0120     		movs	r0, #1
 404 00ac FFF7FEFF 		bl	Out_Ena_Write
 405              	.LVL33:
 198:main.c        ****                     break;
 406              		.loc 1 198 0
 407 00b0 56E0     		b	.L41
 408              	.L39:
 199:main.c        ****                 case 't':           // sound off
ARM GAS  C:\Users\thieu\AppData\Local\Temp\ccF3uG4q.s 			page 12


 200:main.c        ****                     SOUND_OFF;
 409              		.loc 1 200 0
 410 00b2 0020     		movs	r0, #0
 411 00b4 FFF7FEFF 		bl	Out_Ena_Write
 412              	.LVL34:
 201:main.c        ****                     break;
 413              		.loc 1 201 0
 414 00b8 52E0     		b	.L41
 415              	.L40:
 416              	.LBB4:
 202:main.c        ****                 case 'z':
 203:main.c        ****                 {
 204:main.c        ****                     toneSettings(C5, 1./4);
 417              		.loc 1 204 0
 418 00ba 4FF07A51 		mov	r1, #1048576000
 419 00be 40F20B20 		movw	r0, #523
 420 00c2 FFF7FEFF 		bl	toneSettings
 421              	.LVL35:
 205:main.c        ****                     uint16 period = Timer_ReadPeriod();
 422              		.loc 1 205 0
 423 00c6 FFF7FEFF 		bl	Timer_ReadPeriod
 424              	.LVL36:
 206:main.c        ****                     sprintf(buffer, "\n\r Periode: %d", period);
 425              		.loc 1 206 0
 426 00ca 284C     		ldr	r4, .L44+4
 427 00cc 0246     		mov	r2, r0
 428 00ce 2B49     		ldr	r1, .L44+20
 429 00d0 2046     		mov	r0, r4
 430              	.LVL37:
 431 00d2 FFF7FEFF 		bl	sprintf
 432              	.LVL38:
 207:main.c        ****                     UART_PutString(buffer);
 433              		.loc 1 207 0
 434 00d6 2046     		mov	r0, r4
 435 00d8 FFF7FEFF 		bl	UART_PutString
 436              	.LVL39:
 208:main.c        **** 
 209:main.c        ****                     break;
 437              		.loc 1 209 0
 438 00dc 40E0     		b	.L41
 439              	.L32:
 440              	.LBE4:
 210:main.c        ****                 }
 211:main.c        ****                 case 'c':
 212:main.c        ****                     toneSettings(C4, 1./4);
 441              		.loc 1 212 0
 442 00de 4FF07A51 		mov	r1, #1048576000
 443 00e2 40F20510 		movw	r0, #261
 444 00e6 FFF7FEFF 		bl	toneSettings
 445              	.LVL40:
 213:main.c        ****                     
 214:main.c        ****                     break;
 446              		.loc 1 214 0
 447 00ea 39E0     		b	.L41
 448              	.L33:
 215:main.c        ****                 
 216:main.c        **** 
ARM GAS  C:\Users\thieu\AppData\Local\Temp\ccF3uG4q.s 			page 13


 217:main.c        ****                 
 218:main.c        ****                 case 'd':
 219:main.c        ****                 
 220:main.c        ****                     toneSettings(D4, 1./4);
 449              		.loc 1 220 0
 450 00ec 4FF07A51 		mov	r1, #1048576000
 451 00f0 4FF49370 		mov	r0, #294
 452 00f4 FFF7FEFF 		bl	toneSettings
 453              	.LVL41:
 221:main.c        ****                     uint16 period = RegPrescaler_Read();
 454              		.loc 1 221 0
 455 00f8 FFF7FEFF 		bl	RegPrescaler_Read
 456              	.LVL42:
 222:main.c        ****                     sprintf(buffer, "\n\r RegPrescaler: %d", period);
 457              		.loc 1 222 0
 458 00fc 1B4C     		ldr	r4, .L44+4
 459 00fe 0246     		mov	r2, r0
 460 0100 1F49     		ldr	r1, .L44+24
 461 0102 2046     		mov	r0, r4
 462              	.LVL43:
 463 0104 FFF7FEFF 		bl	sprintf
 464              	.LVL44:
 223:main.c        ****                     UART_PutString(buffer);
 465              		.loc 1 223 0
 466 0108 2046     		mov	r0, r4
 467 010a FFF7FEFF 		bl	UART_PutString
 468              	.LVL45:
 224:main.c        **** 
 225:main.c        ****                     break;
 469              		.loc 1 225 0
 470 010e 27E0     		b	.L41
 471              	.L34:
 226:main.c        **** 
 227:main.c        ****                 
 228:main.c        ****                 case 'e':
 229:main.c        ****                 
 230:main.c        ****                     toneSettings(E4, 1./4);
 472              		.loc 1 230 0
 473 0110 4FF07A51 		mov	r1, #1048576000
 474 0114 4FF4A570 		mov	r0, #330
 475 0118 FFF7FEFF 		bl	toneSettings
 476              	.LVL46:
 231:main.c        ****                     break;
 477              		.loc 1 231 0
 478 011c 20E0     		b	.L41
 479              	.L35:
 232:main.c        ****                 
 233:main.c        ****                 case 'f':
 234:main.c        ****                 
 235:main.c        ****                     toneSettings(F4, 1./4);
 480              		.loc 1 235 0
 481 011e 4FF07A51 		mov	r1, #1048576000
 482 0122 40F25D10 		movw	r0, #349
 483 0126 FFF7FEFF 		bl	toneSettings
 484              	.LVL47:
 236:main.c        ****                     break;
 485              		.loc 1 236 0
ARM GAS  C:\Users\thieu\AppData\Local\Temp\ccF3uG4q.s 			page 14


 486 012a 19E0     		b	.L41
 487              	.L36:
 237:main.c        ****                 
 238:main.c        ****                 case 'g':
 239:main.c        ****                 
 240:main.c        ****                     toneSettings(G4, 1./4);
 488              		.loc 1 240 0
 489 012c 4FF07A51 		mov	r1, #1048576000
 490 0130 40F28710 		movw	r0, #391
 491 0134 FFF7FEFF 		bl	toneSettings
 492              	.LVL48:
 241:main.c        ****                     break;
 493              		.loc 1 241 0
 494 0138 12E0     		b	.L41
 495              	.L37:
 242:main.c        ****                 
 243:main.c        ****                 case 'h':
 244:main.c        ****                 
 245:main.c        ****                     toneSettings(H4, 1./4);
 496              		.loc 1 245 0
 497 013a 4FF07A51 		mov	r1, #1048576000
 498 013e 40F2ED10 		movw	r0, #493
 499 0142 FFF7FEFF 		bl	toneSettings
 500              	.LVL49:
 246:main.c        ****                     break;
 501              		.loc 1 246 0
 502 0146 0BE0     		b	.L41
 503              	.L31:
 247:main.c        ****                 
 248:main.c        ****                 case 'a':
 249:main.c        ****                
 250:main.c        ****                     toneSettings(A4, 1./4);
 504              		.loc 1 250 0
 505 0148 4FF07A51 		mov	r1, #1048576000
 506 014c 4FF4DC70 		mov	r0, #440
 507 0150 FFF7FEFF 		bl	toneSettings
 508              	.LVL50:
 251:main.c        ****                     break;
 509              		.loc 1 251 0
 510 0154 04E0     		b	.L41
 511              	.L38:
 252:main.c        ****                 
 253:main.c        ****                 case 'p':
 254:main.c        ****                 
 255:main.c        ****                     playSong();
 512              		.loc 1 255 0
 513 0156 FFF7FEFF 		bl	playSong
 514              	.LVL51:
 256:main.c        ****                     break;
 515              		.loc 1 256 0
 516 015a 01E0     		b	.L41
 517              	.L24:
 257:main.c        ****                 
 258:main.c        **** 
 259:main.c        ****                 default:                    
 260:main.c        ****                     UART_PutChar( cRx );    // (unbenutzten) Buchstaben auf Bildschirm ausgeben
 518              		.loc 1 260 0
ARM GAS  C:\Users\thieu\AppData\Local\Temp\ccF3uG4q.s 			page 15


 519 015c FFF7FEFF 		bl	UART_PutChar
 520              	.LVL52:
 521              	.L41:
 522              	.LBE3:
 261:main.c        ****                     break;
 262:main.c        ****             } // end switch
 263:main.c        ****             cRx = 0;                    // nicht vergessen. Warum?
 523              		.loc 1 263 0
 524 0160 0022     		movs	r2, #0
 525 0162 054B     		ldr	r3, .L44+16
 526 0164 1A70     		strb	r2, [r3]
 527 0166 5FE7     		b	.L23
 528              	.L45:
 529              		.align	2
 530              	.L44:
 531 0168 00000000 		.word	MyIsrUartRX
 532 016c 04000000 		.word	.LANCHOR0+4
 533 0170 00000000 		.word	.LC0
 534 0174 78000000 		.word	.LC1
 535 0178 00000000 		.word	.LANCHOR0
 536 017c 88000000 		.word	.LC2
 537 0180 98000000 		.word	.LC3
 538              		.cfi_endproc
 539              	.LFE70:
 540              		.size	main, .-main
 541              		.global	harm
 542              		.data
 543              		.align	2
 544              		.set	.LANCHOR1,. + 0
 545              		.type	harm, %object
 546              		.size	harm, 176
 547              	harm:
 548 0000 0B02     		.short	523
 549 0002 0000     		.space	2
 550 0004 0000803E 		.word	1048576000
 551 0008 9302     		.short	659
 552 000a 0000     		.space	2
 553 000c 0000803E 		.word	1048576000
 554 0010 1003     		.short	784
 555 0012 0000     		.space	2
 556 0014 0000803E 		.word	1048576000
 557 0018 0B02     		.short	523
 558 001a 0000     		.space	2
 559 001c 0000803E 		.word	1048576000
 560 0020 9302     		.short	659
 561 0022 0000     		.space	2
 562 0024 0000803E 		.word	1048576000
 563 0028 1003     		.short	784
 564 002a 0000     		.space	2
 565 002c 0000803E 		.word	1048576000
 566 0030 0B02     		.short	523
 567 0032 0000     		.space	2
 568 0034 0000803E 		.word	1048576000
 569 0038 BA02     		.short	698
 570 003a 0000     		.space	2
 571 003c 0000803E 		.word	1048576000
 572 0040 7003     		.short	880
ARM GAS  C:\Users\thieu\AppData\Local\Temp\ccF3uG4q.s 			page 16


 573 0042 0000     		.space	2
 574 0044 0000803E 		.word	1048576000
 575 0048 0B02     		.short	523
 576 004a 0000     		.space	2
 577 004c 0000803E 		.word	1048576000
 578 0050 BA02     		.short	698
 579 0052 0000     		.space	2
 580 0054 0000803E 		.word	1048576000
 581 0058 7003     		.short	880
 582 005a 0000     		.space	2
 583 005c 0000803E 		.word	1048576000
 584 0060 ED01     		.short	493
 585 0062 0000     		.space	2
 586 0064 0000803E 		.word	1048576000
 587 0068 4B02     		.short	587
 588 006a 0000     		.space	2
 589 006c 0000803E 		.word	1048576000
 590 0070 1003     		.short	784
 591 0072 0000     		.space	2
 592 0074 0000803E 		.word	1048576000
 593 0078 ED01     		.short	493
 594 007a 0000     		.space	2
 595 007c 0000803E 		.word	1048576000
 596 0080 4B02     		.short	587
 597 0082 0000     		.space	2
 598 0084 0000803E 		.word	1048576000
 599 0088 1003     		.short	784
 600 008a 0000     		.space	2
 601 008c 0000803E 		.word	1048576000
 602 0090 0B02     		.short	523
 603 0092 0000     		.space	2
 604 0094 0000403F 		.word	1061158912
 605 0098 0000     		.short	0
 606 009a 0000     		.space	2
 607 009c 0000803E 		.word	1048576000
 608 00a0 4B02     		.short	587
 609 00a2 0000     		.space	2
 610 00a4 0000803F 		.word	1065353216
 611 00a8 0B02     		.short	523
 612 00aa 0000     		.space	2
 613 00ac 0000E03F 		.word	1071644672
 614              		.section	.rodata.str1.4,"aMS",%progbits,1
 615              		.align	2
 616              	.LC0:
 617 0000 4D50535F 		.ascii	"MPS_W22_Prakt_4, FreeSoC2, PSoC 5LP, ver. 1.0\012\015"
 617      5732325F 
 617      5072616B 
 617      745F342C 
 617      20467265 
 618 002f 4E69636B 		.ascii	"Nick Otin, Marie O'hana (Template MPS22 Termin 4), "
 618      204F7469 
 618      6E2C204D 
 618      61726965 
 618      204F2768 
 619 0062 4A616E20 		.ascii	"Jan  9 2023 16:41:49\000"
 619      20392032 
 619      30323320 
ARM GAS  C:\Users\thieu\AppData\Local\Temp\ccF3uG4q.s 			page 17


 619      31363A34 
 619      313A3439 
 620 0077 00       		.space	1
 621              	.LC1:
 622 0078 0A0D5765 		.ascii	"\012\015Welcome! %s\012\015\000"
 622      6C636F6D 
 622      65212025 
 622      730A0D00 
 623              	.LC2:
 624 0088 0A0D2050 		.ascii	"\012\015 Periode: %d\000"
 624      6572696F 
 624      64653A20 
 624      256400
 625 0097 00       		.space	1
 626              	.LC3:
 627 0098 0A0D2052 		.ascii	"\012\015 RegPrescaler: %d\000"
 627      65675072 
 627      65736361 
 627      6C65723A 
 627      20256400 
 628              		.bss
 629              		.align	2
 630              		.set	.LANCHOR0,. + 0
 631              		.type	cRx, %object
 632              		.size	cRx, 1
 633              	cRx:
 634 0000 00       		.space	1
 635 0001 000000   		.space	3
 636              		.type	buffer, %object
 637              		.size	buffer, 128
 638              	buffer:
 639 0004 00000000 		.space	128
 639      00000000 
 639      00000000 
 639      00000000 
 639      00000000 
 640              		.text
 641              	.Letext0:
 642              		.file 2 "e:\\psoc creator\\psoc creator\\4.4\\psoc creator\\import\\gnu\\arm\\5.4.1\\arm-none-eabi
 643              		.file 3 "e:\\psoc creator\\psoc creator\\4.4\\psoc creator\\import\\gnu\\arm\\5.4.1\\arm-none-eabi
 644              		.file 4 "Generated_Source\\PSoC5/cytypes.h"
 645              		.file 5 "scale.h"
 646              		.file 6 "Generated_Source\\PSoC5/core_cm3.h"
 647              		.file 7 "Generated_Source\\PSoC5/UART.h"
 648              		.file 8 "Generated_Source\\PSoC5/Timer.h"
 649              		.file 9 "Generated_Source\\PSoC5/Out_Ena.h"
 650              		.file 10 "Generated_Source\\PSoC5/CyLib.h"
 651              		.file 11 "e:\\psoc creator\\psoc creator\\4.4\\psoc creator\\import\\gnu\\arm\\5.4.1\\arm-none-eab
 652              		.file 12 "Generated_Source\\PSoC5/RegPrescaler.h"
 653              		.file 13 "Generated_Source\\PSoC5/isr_UART_RX.h"